
switch-linear-gcc-13-O2-nopie:     file format elf64-x86-64


Disassembly of section .init:

0000000000401000 <_init>:
  401000:	f3 0f 1e fa          	endbr64 
  401004:	48 83 ec 08          	sub    $0x8,%rsp
  401008:	48 8b 05 e9 2f 00 00 	mov    0x2fe9(%rip),%rax        # 403ff8 <__gmon_start__@Base>
  40100f:	48 85 c0             	test   %rax,%rax
  401012:	74 02                	je     401016 <_init+0x16>
  401014:	ff d0                	call   *%rax
  401016:	48 83 c4 08          	add    $0x8,%rsp
  40101a:	c3                   	ret    

Disassembly of section .plt:

0000000000401020 <puts@plt-0x10>:
  401020:	ff 35 e2 2f 00 00    	push   0x2fe2(%rip)        # 404008 <_GLOBAL_OFFSET_TABLE_+0x8>
  401026:	ff 25 e4 2f 00 00    	jmp    *0x2fe4(%rip)        # 404010 <_GLOBAL_OFFSET_TABLE_+0x10>
  40102c:	0f 1f 40 00          	nopl   0x0(%rax)

0000000000401030 <puts@plt>:
  401030:	ff 25 e2 2f 00 00    	jmp    *0x2fe2(%rip)        # 404018 <puts@GLIBC_2.2.5>
  401036:	68 00 00 00 00       	push   $0x0
  40103b:	e9 e0 ff ff ff       	jmp    401020 <_init+0x20>

0000000000401040 <exit@plt>:
  401040:	ff 25 da 2f 00 00    	jmp    *0x2fda(%rip)        # 404020 <exit@GLIBC_2.2.5>
  401046:	68 01 00 00 00       	push   $0x1
  40104b:	e9 d0 ff ff ff       	jmp    401020 <_init+0x20>

Disassembly of section .text:

0000000000401050 <main>:
  401050:	50                   	push   %rax
  401051:	58                   	pop    %rax
  401052:	48 83 ec 08          	sub    $0x8,%rsp
  401056:	83 ff 09             	cmp    $0x9,%edi
  401059:	0f 87 8c 00 00 00    	ja     4010eb <main+0x9b>
  40105f:	89 ff                	mov    %edi,%edi
  401061:	ff 24 fd 58 20 40 00 	jmp    *0x402058(,%rdi,8)
  401068:	bf 3c 20 40 00       	mov    $0x40203c,%edi
  40106d:	e8 be ff ff ff       	call   401030 <puts@plt>
  401072:	66 0f 1f 44 00 00    	nopw   0x0(%rax,%rax,1)
  401078:	31 ff                	xor    %edi,%edi
  40107a:	e8 c1 ff ff ff       	call   401040 <exit@plt>
  40107f:	bf 43 20 40 00       	mov    $0x402043,%edi
  401084:	e8 a7 ff ff ff       	call   401030 <puts@plt>
  401089:	eb ed                	jmp    401078 <main+0x28>
  40108b:	bf 04 20 40 00       	mov    $0x402004,%edi
  401090:	e8 9b ff ff ff       	call   401030 <puts@plt>
  401095:	eb e1                	jmp    401078 <main+0x28>
  401097:	bf 0b 20 40 00       	mov    $0x40200b,%edi
  40109c:	e8 8f ff ff ff       	call   401030 <puts@plt>
  4010a1:	eb d5                	jmp    401078 <main+0x28>
  4010a3:	bf 12 20 40 00       	mov    $0x402012,%edi
  4010a8:	e8 83 ff ff ff       	call   401030 <puts@plt>
  4010ad:	eb c9                	jmp    401078 <main+0x28>
  4010af:	bf 19 20 40 00       	mov    $0x402019,%edi
  4010b4:	e8 77 ff ff ff       	call   401030 <puts@plt>
  4010b9:	eb bd                	jmp    401078 <main+0x28>
  4010bb:	bf 20 20 40 00       	mov    $0x402020,%edi
  4010c0:	e8 6b ff ff ff       	call   401030 <puts@plt>
  4010c5:	eb b1                	jmp    401078 <main+0x28>
  4010c7:	bf 27 20 40 00       	mov    $0x402027,%edi
  4010cc:	e8 5f ff ff ff       	call   401030 <puts@plt>
  4010d1:	eb a5                	jmp    401078 <main+0x28>
  4010d3:	bf 2e 20 40 00       	mov    $0x40202e,%edi
  4010d8:	e8 53 ff ff ff       	call   401030 <puts@plt>
  4010dd:	eb 99                	jmp    401078 <main+0x28>
  4010df:	bf 35 20 40 00       	mov    $0x402035,%edi
  4010e4:	e8 47 ff ff ff       	call   401030 <puts@plt>
  4010e9:	eb 8d                	jmp    401078 <main+0x28>
  4010eb:	bf 4a 20 40 00       	mov    $0x40204a,%edi
  4010f0:	e8 3b ff ff ff       	call   401030 <puts@plt>
  4010f5:	eb 81                	jmp    401078 <main+0x28>
  4010f7:	66 0f 1f 84 00 00 00 	nopw   0x0(%rax,%rax,1)
  4010fe:	00 00 

0000000000401100 <_start>:
  401100:	f3 0f 1e fa          	endbr64 
  401104:	31 ed                	xor    %ebp,%ebp
  401106:	49 89 d1             	mov    %rdx,%r9
  401109:	5e                   	pop    %rsi
  40110a:	48 89 e2             	mov    %rsp,%rdx
  40110d:	48 83 e4 f0          	and    $0xfffffffffffffff0,%rsp
  401111:	50                   	push   %rax
  401112:	54                   	push   %rsp
  401113:	45 31 c0             	xor    %r8d,%r8d
  401116:	31 c9                	xor    %ecx,%ecx
  401118:	48 c7 c7 50 10 40 00 	mov    $0x401050,%rdi
  40111f:	ff 15 cb 2e 00 00    	call   *0x2ecb(%rip)        # 403ff0 <__libc_start_main@GLIBC_2.34>
  401125:	f4                   	hlt    
  401126:	66 2e 0f 1f 84 00 00 	cs nopw 0x0(%rax,%rax,1)
  40112d:	00 00 00 

0000000000401130 <_dl_relocate_static_pie>:
  401130:	f3 0f 1e fa          	endbr64 
  401134:	c3                   	ret    
  401135:	66 2e 0f 1f 84 00 00 	cs nopw 0x0(%rax,%rax,1)
  40113c:	00 00 00 
  40113f:	90                   	nop

0000000000401140 <deregister_tm_clones>:
  401140:	b8 38 40 40 00       	mov    $0x404038,%eax
  401145:	48 3d 38 40 40 00    	cmp    $0x404038,%rax
  40114b:	74 13                	je     401160 <deregister_tm_clones+0x20>
  40114d:	b8 00 00 00 00       	mov    $0x0,%eax
  401152:	48 85 c0             	test   %rax,%rax
  401155:	74 09                	je     401160 <deregister_tm_clones+0x20>
  401157:	bf 38 40 40 00       	mov    $0x404038,%edi
  40115c:	ff e0                	jmp    *%rax
  40115e:	66 90                	xchg   %ax,%ax
  401160:	c3                   	ret    
  401161:	66 66 2e 0f 1f 84 00 	data16 cs nopw 0x0(%rax,%rax,1)
  401168:	00 00 00 00 
  40116c:	0f 1f 40 00          	nopl   0x0(%rax)

0000000000401170 <register_tm_clones>:
  401170:	be 38 40 40 00       	mov    $0x404038,%esi
  401175:	48 81 ee 38 40 40 00 	sub    $0x404038,%rsi
  40117c:	48 89 f0             	mov    %rsi,%rax
  40117f:	48 c1 ee 3f          	shr    $0x3f,%rsi
  401183:	48 c1 f8 03          	sar    $0x3,%rax
  401187:	48 01 c6             	add    %rax,%rsi
  40118a:	48 d1 fe             	sar    %rsi
  40118d:	74 11                	je     4011a0 <register_tm_clones+0x30>
  40118f:	b8 00 00 00 00       	mov    $0x0,%eax
  401194:	48 85 c0             	test   %rax,%rax
  401197:	74 07                	je     4011a0 <register_tm_clones+0x30>
  401199:	bf 38 40 40 00       	mov    $0x404038,%edi
  40119e:	ff e0                	jmp    *%rax
  4011a0:	c3                   	ret    
  4011a1:	66 66 2e 0f 1f 84 00 	data16 cs nopw 0x0(%rax,%rax,1)
  4011a8:	00 00 00 00 
  4011ac:	0f 1f 40 00          	nopl   0x0(%rax)

00000000004011b0 <__do_global_dtors_aux>:
  4011b0:	f3 0f 1e fa          	endbr64 
  4011b4:	80 3d 7d 2e 00 00 00 	cmpb   $0x0,0x2e7d(%rip)        # 404038 <__TMC_END__>
  4011bb:	75 13                	jne    4011d0 <__do_global_dtors_aux+0x20>
  4011bd:	55                   	push   %rbp
  4011be:	48 89 e5             	mov    %rsp,%rbp
  4011c1:	e8 7a ff ff ff       	call   401140 <deregister_tm_clones>
  4011c6:	c6 05 6b 2e 00 00 01 	movb   $0x1,0x2e6b(%rip)        # 404038 <__TMC_END__>
  4011cd:	5d                   	pop    %rbp
  4011ce:	c3                   	ret    
  4011cf:	90                   	nop
  4011d0:	c3                   	ret    
  4011d1:	66 66 2e 0f 1f 84 00 	data16 cs nopw 0x0(%rax,%rax,1)
  4011d8:	00 00 00 00 
  4011dc:	0f 1f 40 00          	nopl   0x0(%rax)

00000000004011e0 <frame_dummy>:
  4011e0:	f3 0f 1e fa          	endbr64 
  4011e4:	eb 8a                	jmp    401170 <register_tm_clones>

Disassembly of section .fini:

00000000004011e8 <_fini>:
  4011e8:	f3 0f 1e fa          	endbr64 
  4011ec:	48 83 ec 08          	sub    $0x8,%rsp
  4011f0:	48 83 c4 08          	add    $0x8,%rsp
  4011f4:	c3                   	ret    
