
pan_stripped:     file format elf64-x86-64


Disassembly of section .init:

0000000000002000 <_init>:
    2000:	f3 0f 1e fa          	endbr64 
    2004:	48 83 ec 08          	sub    $0x8,%rsp
    2008:	48 8b 05 d9 3f 01 00 	mov    0x13fd9(%rip),%rax        # 15fe8 <__gmon_start__@Base>
    200f:	48 85 c0             	test   %rax,%rax
    2012:	74 02                	je     2016 <_init+0x16>
    2014:	ff d0                	call   *%rax
    2016:	48 83 c4 08          	add    $0x8,%rsp
    201a:	c3                   	ret    

Disassembly of section .plt:

0000000000002020 <.plt>:
    2020:	ff 35 4a 3e 01 00    	push   0x13e4a(%rip)        # 15e70 <_GLOBAL_OFFSET_TABLE_+0x8>
    2026:	ff 25 4c 3e 01 00    	jmp    *0x13e4c(%rip)        # 15e78 <_GLOBAL_OFFSET_TABLE_+0x10>
    202c:	0f 1f 40 00          	nopl   0x0(%rax)
    2030:	f3 0f 1e fa          	endbr64 
    2034:	68 00 00 00 00       	push   $0x0
    2039:	e9 e2 ff ff ff       	jmp    2020 <_init+0x20>
    203e:	66 90                	xchg   %ax,%ax
    2040:	f3 0f 1e fa          	endbr64 
    2044:	68 01 00 00 00       	push   $0x1
    2049:	e9 d2 ff ff ff       	jmp    2020 <_init+0x20>
    204e:	66 90                	xchg   %ax,%ax
    2050:	f3 0f 1e fa          	endbr64 
    2054:	68 02 00 00 00       	push   $0x2
    2059:	e9 c2 ff ff ff       	jmp    2020 <_init+0x20>
    205e:	66 90                	xchg   %ax,%ax
    2060:	f3 0f 1e fa          	endbr64 
    2064:	68 03 00 00 00       	push   $0x3
    2069:	e9 b2 ff ff ff       	jmp    2020 <_init+0x20>
    206e:	66 90                	xchg   %ax,%ax
    2070:	f3 0f 1e fa          	endbr64 
    2074:	68 04 00 00 00       	push   $0x4
    2079:	e9 a2 ff ff ff       	jmp    2020 <_init+0x20>
    207e:	66 90                	xchg   %ax,%ax
    2080:	f3 0f 1e fa          	endbr64 
    2084:	68 05 00 00 00       	push   $0x5
    2089:	e9 92 ff ff ff       	jmp    2020 <_init+0x20>
    208e:	66 90                	xchg   %ax,%ax
    2090:	f3 0f 1e fa          	endbr64 
    2094:	68 06 00 00 00       	push   $0x6
    2099:	e9 82 ff ff ff       	jmp    2020 <_init+0x20>
    209e:	66 90                	xchg   %ax,%ax
    20a0:	f3 0f 1e fa          	endbr64 
    20a4:	68 07 00 00 00       	push   $0x7
    20a9:	e9 72 ff ff ff       	jmp    2020 <_init+0x20>
    20ae:	66 90                	xchg   %ax,%ax
    20b0:	f3 0f 1e fa          	endbr64 
    20b4:	68 08 00 00 00       	push   $0x8
    20b9:	e9 62 ff ff ff       	jmp    2020 <_init+0x20>
    20be:	66 90                	xchg   %ax,%ax
    20c0:	f3 0f 1e fa          	endbr64 
    20c4:	68 09 00 00 00       	push   $0x9
    20c9:	e9 52 ff ff ff       	jmp    2020 <_init+0x20>
    20ce:	66 90                	xchg   %ax,%ax
    20d0:	f3 0f 1e fa          	endbr64 
    20d4:	68 0a 00 00 00       	push   $0xa
    20d9:	e9 42 ff ff ff       	jmp    2020 <_init+0x20>
    20de:	66 90                	xchg   %ax,%ax
    20e0:	f3 0f 1e fa          	endbr64 
    20e4:	68 0b 00 00 00       	push   $0xb
    20e9:	e9 32 ff ff ff       	jmp    2020 <_init+0x20>
    20ee:	66 90                	xchg   %ax,%ax
    20f0:	f3 0f 1e fa          	endbr64 
    20f4:	68 0c 00 00 00       	push   $0xc
    20f9:	e9 22 ff ff ff       	jmp    2020 <_init+0x20>
    20fe:	66 90                	xchg   %ax,%ax
    2100:	f3 0f 1e fa          	endbr64 
    2104:	68 0d 00 00 00       	push   $0xd
    2109:	e9 12 ff ff ff       	jmp    2020 <_init+0x20>
    210e:	66 90                	xchg   %ax,%ax
    2110:	f3 0f 1e fa          	endbr64 
    2114:	68 0e 00 00 00       	push   $0xe
    2119:	e9 02 ff ff ff       	jmp    2020 <_init+0x20>
    211e:	66 90                	xchg   %ax,%ax
    2120:	f3 0f 1e fa          	endbr64 
    2124:	68 0f 00 00 00       	push   $0xf
    2129:	e9 f2 fe ff ff       	jmp    2020 <_init+0x20>
    212e:	66 90                	xchg   %ax,%ax
    2130:	f3 0f 1e fa          	endbr64 
    2134:	68 10 00 00 00       	push   $0x10
    2139:	e9 e2 fe ff ff       	jmp    2020 <_init+0x20>
    213e:	66 90                	xchg   %ax,%ax
    2140:	f3 0f 1e fa          	endbr64 
    2144:	68 11 00 00 00       	push   $0x11
    2149:	e9 d2 fe ff ff       	jmp    2020 <_init+0x20>
    214e:	66 90                	xchg   %ax,%ax
    2150:	f3 0f 1e fa          	endbr64 
    2154:	68 12 00 00 00       	push   $0x12
    2159:	e9 c2 fe ff ff       	jmp    2020 <_init+0x20>
    215e:	66 90                	xchg   %ax,%ax
    2160:	f3 0f 1e fa          	endbr64 
    2164:	68 13 00 00 00       	push   $0x13
    2169:	e9 b2 fe ff ff       	jmp    2020 <_init+0x20>
    216e:	66 90                	xchg   %ax,%ax
    2170:	f3 0f 1e fa          	endbr64 
    2174:	68 14 00 00 00       	push   $0x14
    2179:	e9 a2 fe ff ff       	jmp    2020 <_init+0x20>
    217e:	66 90                	xchg   %ax,%ax
    2180:	f3 0f 1e fa          	endbr64 
    2184:	68 15 00 00 00       	push   $0x15
    2189:	e9 92 fe ff ff       	jmp    2020 <_init+0x20>
    218e:	66 90                	xchg   %ax,%ax
    2190:	f3 0f 1e fa          	endbr64 
    2194:	68 16 00 00 00       	push   $0x16
    2199:	e9 82 fe ff ff       	jmp    2020 <_init+0x20>
    219e:	66 90                	xchg   %ax,%ax
    21a0:	f3 0f 1e fa          	endbr64 
    21a4:	68 17 00 00 00       	push   $0x17
    21a9:	e9 72 fe ff ff       	jmp    2020 <_init+0x20>
    21ae:	66 90                	xchg   %ax,%ax
    21b0:	f3 0f 1e fa          	endbr64 
    21b4:	68 18 00 00 00       	push   $0x18
    21b9:	e9 62 fe ff ff       	jmp    2020 <_init+0x20>
    21be:	66 90                	xchg   %ax,%ax
    21c0:	f3 0f 1e fa          	endbr64 
    21c4:	68 19 00 00 00       	push   $0x19
    21c9:	e9 52 fe ff ff       	jmp    2020 <_init+0x20>
    21ce:	66 90                	xchg   %ax,%ax
    21d0:	f3 0f 1e fa          	endbr64 
    21d4:	68 1a 00 00 00       	push   $0x1a
    21d9:	e9 42 fe ff ff       	jmp    2020 <_init+0x20>
    21de:	66 90                	xchg   %ax,%ax
    21e0:	f3 0f 1e fa          	endbr64 
    21e4:	68 1b 00 00 00       	push   $0x1b
    21e9:	e9 32 fe ff ff       	jmp    2020 <_init+0x20>
    21ee:	66 90                	xchg   %ax,%ax
    21f0:	f3 0f 1e fa          	endbr64 
    21f4:	68 1c 00 00 00       	push   $0x1c
    21f9:	e9 22 fe ff ff       	jmp    2020 <_init+0x20>
    21fe:	66 90                	xchg   %ax,%ax
    2200:	f3 0f 1e fa          	endbr64 
    2204:	68 1d 00 00 00       	push   $0x1d
    2209:	e9 12 fe ff ff       	jmp    2020 <_init+0x20>
    220e:	66 90                	xchg   %ax,%ax
    2210:	f3 0f 1e fa          	endbr64 
    2214:	68 1e 00 00 00       	push   $0x1e
    2219:	e9 02 fe ff ff       	jmp    2020 <_init+0x20>
    221e:	66 90                	xchg   %ax,%ax
    2220:	f3 0f 1e fa          	endbr64 
    2224:	68 1f 00 00 00       	push   $0x1f
    2229:	e9 f2 fd ff ff       	jmp    2020 <_init+0x20>
    222e:	66 90                	xchg   %ax,%ax
    2230:	f3 0f 1e fa          	endbr64 
    2234:	68 20 00 00 00       	push   $0x20
    2239:	e9 e2 fd ff ff       	jmp    2020 <_init+0x20>
    223e:	66 90                	xchg   %ax,%ax
    2240:	f3 0f 1e fa          	endbr64 
    2244:	68 21 00 00 00       	push   $0x21
    2249:	e9 d2 fd ff ff       	jmp    2020 <_init+0x20>
    224e:	66 90                	xchg   %ax,%ax
    2250:	f3 0f 1e fa          	endbr64 
    2254:	68 22 00 00 00       	push   $0x22
    2259:	e9 c2 fd ff ff       	jmp    2020 <_init+0x20>
    225e:	66 90                	xchg   %ax,%ax
    2260:	f3 0f 1e fa          	endbr64 
    2264:	68 23 00 00 00       	push   $0x23
    2269:	e9 b2 fd ff ff       	jmp    2020 <_init+0x20>
    226e:	66 90                	xchg   %ax,%ax
    2270:	f3 0f 1e fa          	endbr64 
    2274:	68 24 00 00 00       	push   $0x24
    2279:	e9 a2 fd ff ff       	jmp    2020 <_init+0x20>
    227e:	66 90                	xchg   %ax,%ax
    2280:	f3 0f 1e fa          	endbr64 
    2284:	68 25 00 00 00       	push   $0x25
    2289:	e9 92 fd ff ff       	jmp    2020 <_init+0x20>
    228e:	66 90                	xchg   %ax,%ax
    2290:	f3 0f 1e fa          	endbr64 
    2294:	68 26 00 00 00       	push   $0x26
    2299:	e9 82 fd ff ff       	jmp    2020 <_init+0x20>
    229e:	66 90                	xchg   %ax,%ax
    22a0:	f3 0f 1e fa          	endbr64 
    22a4:	68 27 00 00 00       	push   $0x27
    22a9:	e9 72 fd ff ff       	jmp    2020 <_init+0x20>
    22ae:	66 90                	xchg   %ax,%ax
    22b0:	f3 0f 1e fa          	endbr64 
    22b4:	68 28 00 00 00       	push   $0x28
    22b9:	e9 62 fd ff ff       	jmp    2020 <_init+0x20>
    22be:	66 90                	xchg   %ax,%ax
    22c0:	f3 0f 1e fa          	endbr64 
    22c4:	68 29 00 00 00       	push   $0x29
    22c9:	e9 52 fd ff ff       	jmp    2020 <_init+0x20>
    22ce:	66 90                	xchg   %ax,%ax
    22d0:	f3 0f 1e fa          	endbr64 
    22d4:	68 2a 00 00 00       	push   $0x2a
    22d9:	e9 42 fd ff ff       	jmp    2020 <_init+0x20>
    22de:	66 90                	xchg   %ax,%ax

Disassembly of section .plt.got:

00000000000022e0 <.plt.got>:
    22e0:	f3 0f 1e fa          	endbr64 
    22e4:	ff 25 0e 3d 01 00    	jmp    *0x13d0e(%rip)        # 15ff8 <__cxa_finalize@GLIBC_2.2.5>
    22ea:	66 0f 1f 44 00 00    	nopw   0x0(%rax,%rax,1)

Disassembly of section .plt.sec:

00000000000022f0 <.plt.sec>:
    22f0:	f3 0f 1e fa          	endbr64 
    22f4:	ff 25 86 3b 01 00    	jmp    *0x13b86(%rip)        # 15e80 <__strcat_chk@GLIBC_2.3.4>
    22fa:	66 0f 1f 44 00 00    	nopw   0x0(%rax,%rax,1)
    2300:	f3 0f 1e fa          	endbr64 
    2304:	ff 25 7e 3b 01 00    	jmp    *0x13b7e(%rip)        # 15e88 <putchar@GLIBC_2.2.5>
    230a:	66 0f 1f 44 00 00    	nopw   0x0(%rax,%rax,1)
    2310:	f3 0f 1e fa          	endbr64 
    2314:	ff 25 76 3b 01 00    	jmp    *0x13b76(%rip)        # 15e90 <__vfprintf_chk@GLIBC_2.3.4>
    231a:	66 0f 1f 44 00 00    	nopw   0x0(%rax,%rax,1)
    2320:	f3 0f 1e fa          	endbr64 
    2324:	ff 25 6e 3b 01 00    	jmp    *0x13b6e(%rip)        # 15e98 <strncpy@GLIBC_2.2.5>
    232a:	66 0f 1f 44 00 00    	nopw   0x0(%rax,%rax,1)
    2330:	f3 0f 1e fa          	endbr64 
    2334:	ff 25 66 3b 01 00    	jmp    *0x13b66(%rip)        # 15ea0 <strncmp@GLIBC_2.2.5>
    233a:	66 0f 1f 44 00 00    	nopw   0x0(%rax,%rax,1)
    2340:	f3 0f 1e fa          	endbr64 
    2344:	ff 25 5e 3b 01 00    	jmp    *0x13b5e(%rip)        # 15ea8 <strcpy@GLIBC_2.2.5>
    234a:	66 0f 1f 44 00 00    	nopw   0x0(%rax,%rax,1)
    2350:	f3 0f 1e fa          	endbr64 
    2354:	ff 25 56 3b 01 00    	jmp    *0x13b56(%rip)        # 15eb0 <__isoc99_fscanf@GLIBC_2.7>
    235a:	66 0f 1f 44 00 00    	nopw   0x0(%rax,%rax,1)
    2360:	f3 0f 1e fa          	endbr64 
    2364:	ff 25 4e 3b 01 00    	jmp    *0x13b4e(%rip)        # 15eb8 <puts@GLIBC_2.2.5>
    236a:	66 0f 1f 44 00 00    	nopw   0x0(%rax,%rax,1)
    2370:	f3 0f 1e fa          	endbr64 
    2374:	ff 25 46 3b 01 00    	jmp    *0x13b46(%rip)        # 15ec0 <write@GLIBC_2.2.5>
    237a:	66 0f 1f 44 00 00    	nopw   0x0(%rax,%rax,1)
    2380:	f3 0f 1e fa          	endbr64 
    2384:	ff 25 3e 3b 01 00    	jmp    *0x13b3e(%rip)        # 15ec8 <fclose@GLIBC_2.2.5>
    238a:	66 0f 1f 44 00 00    	nopw   0x0(%rax,%rax,1)
    2390:	f3 0f 1e fa          	endbr64 
    2394:	ff 25 36 3b 01 00    	jmp    *0x13b36(%rip)        # 15ed0 <strlen@GLIBC_2.2.5>
    239a:	66 0f 1f 44 00 00    	nopw   0x0(%rax,%rax,1)
    23a0:	f3 0f 1e fa          	endbr64 
    23a4:	ff 25 2e 3b 01 00    	jmp    *0x13b2e(%rip)        # 15ed8 <__stack_chk_fail@GLIBC_2.4>
    23aa:	66 0f 1f 44 00 00    	nopw   0x0(%rax,%rax,1)
    23b0:	f3 0f 1e fa          	endbr64 
    23b4:	ff 25 26 3b 01 00    	jmp    *0x13b26(%rip)        # 15ee0 <strchr@GLIBC_2.2.5>
    23ba:	66 0f 1f 44 00 00    	nopw   0x0(%rax,%rax,1)
    23c0:	f3 0f 1e fa          	endbr64 
    23c4:	ff 25 1e 3b 01 00    	jmp    *0x13b1e(%rip)        # 15ee8 <strrchr@GLIBC_2.2.5>
    23ca:	66 0f 1f 44 00 00    	nopw   0x0(%rax,%rax,1)
    23d0:	f3 0f 1e fa          	endbr64 
    23d4:	ff 25 16 3b 01 00    	jmp    *0x13b16(%rip)        # 15ef0 <memset@GLIBC_2.2.5>
    23da:	66 0f 1f 44 00 00    	nopw   0x0(%rax,%rax,1)
    23e0:	f3 0f 1e fa          	endbr64 
    23e4:	ff 25 0e 3b 01 00    	jmp    *0x13b0e(%rip)        # 15ef8 <close@GLIBC_2.2.5>
    23ea:	66 0f 1f 44 00 00    	nopw   0x0(%rax,%rax,1)
    23f0:	f3 0f 1e fa          	endbr64 
    23f4:	ff 25 06 3b 01 00    	jmp    *0x13b06(%rip)        # 15f00 <srand@GLIBC_2.2.5>
    23fa:	66 0f 1f 44 00 00    	nopw   0x0(%rax,%rax,1)
    2400:	f3 0f 1e fa          	endbr64 
    2404:	ff 25 fe 3a 01 00    	jmp    *0x13afe(%rip)        # 15f08 <memcmp@GLIBC_2.2.5>
    240a:	66 0f 1f 44 00 00    	nopw   0x0(%rax,%rax,1)
    2410:	f3 0f 1e fa          	endbr64 
    2414:	ff 25 f6 3a 01 00    	jmp    *0x13af6(%rip)        # 15f10 <strcmp@GLIBC_2.2.5>
    241a:	66 0f 1f 44 00 00    	nopw   0x0(%rax,%rax,1)
    2420:	f3 0f 1e fa          	endbr64 
    2424:	ff 25 ee 3a 01 00    	jmp    *0x13aee(%rip)        # 15f18 <putc@GLIBC_2.2.5>
    242a:	66 0f 1f 44 00 00    	nopw   0x0(%rax,%rax,1)
    2430:	f3 0f 1e fa          	endbr64 
    2434:	ff 25 e6 3a 01 00    	jmp    *0x13ae6(%rip)        # 15f20 <signal@GLIBC_2.2.5>
    243a:	66 0f 1f 44 00 00    	nopw   0x0(%rax,%rax,1)
    2440:	f3 0f 1e fa          	endbr64 
    2444:	ff 25 de 3a 01 00    	jmp    *0x13ade(%rip)        # 15f28 <__memcpy_chk@GLIBC_2.3.4>
    244a:	66 0f 1f 44 00 00    	nopw   0x0(%rax,%rax,1)
    2450:	f3 0f 1e fa          	endbr64 
    2454:	ff 25 d6 3a 01 00    	jmp    *0x13ad6(%rip)        # 15f30 <strtol@GLIBC_2.2.5>
    245a:	66 0f 1f 44 00 00    	nopw   0x0(%rax,%rax,1)
    2460:	f3 0f 1e fa          	endbr64 
    2464:	ff 25 ce 3a 01 00    	jmp    *0x13ace(%rip)        # 15f38 <memcpy@GLIBC_2.14>
    246a:	66 0f 1f 44 00 00    	nopw   0x0(%rax,%rax,1)
    2470:	f3 0f 1e fa          	endbr64 
    2474:	ff 25 c6 3a 01 00    	jmp    *0x13ac6(%rip)        # 15f40 <__stpcpy_chk@GLIBC_2.3.4>
    247a:	66 0f 1f 44 00 00    	nopw   0x0(%rax,%rax,1)
    2480:	f3 0f 1e fa          	endbr64 
    2484:	ff 25 be 3a 01 00    	jmp    *0x13abe(%rip)        # 15f48 <malloc@GLIBC_2.2.5>
    248a:	66 0f 1f 44 00 00    	nopw   0x0(%rax,%rax,1)
    2490:	f3 0f 1e fa          	endbr64 
    2494:	ff 25 b6 3a 01 00    	jmp    *0x13ab6(%rip)        # 15f50 <fflush@GLIBC_2.2.5>
    249a:	66 0f 1f 44 00 00    	nopw   0x0(%rax,%rax,1)
    24a0:	f3 0f 1e fa          	endbr64 
    24a4:	ff 25 ae 3a 01 00    	jmp    *0x13aae(%rip)        # 15f58 <__strcpy_chk@GLIBC_2.3.4>
    24aa:	66 0f 1f 44 00 00    	nopw   0x0(%rax,%rax,1)
    24b0:	f3 0f 1e fa          	endbr64 
    24b4:	ff 25 a6 3a 01 00    	jmp    *0x13aa6(%rip)        # 15f60 <__printf_chk@GLIBC_2.3.4>
    24ba:	66 0f 1f 44 00 00    	nopw   0x0(%rax,%rax,1)
    24c0:	f3 0f 1e fa          	endbr64 
    24c4:	ff 25 9e 3a 01 00    	jmp    *0x13a9e(%rip)        # 15f68 <memmove@GLIBC_2.2.5>
    24ca:	66 0f 1f 44 00 00    	nopw   0x0(%rax,%rax,1)
    24d0:	f3 0f 1e fa          	endbr64 
    24d4:	ff 25 96 3a 01 00    	jmp    *0x13a96(%rip)        # 15f70 <open@GLIBC_2.2.5>
    24da:	66 0f 1f 44 00 00    	nopw   0x0(%rax,%rax,1)
    24e0:	f3 0f 1e fa          	endbr64 
    24e4:	ff 25 8e 3a 01 00    	jmp    *0x13a8e(%rip)        # 15f78 <times@GLIBC_2.2.5>
    24ea:	66 0f 1f 44 00 00    	nopw   0x0(%rax,%rax,1)
    24f0:	f3 0f 1e fa          	endbr64 
    24f4:	ff 25 86 3a 01 00    	jmp    *0x13a86(%rip)        # 15f80 <fopen@GLIBC_2.2.5>
    24fa:	66 0f 1f 44 00 00    	nopw   0x0(%rax,%rax,1)
    2500:	f3 0f 1e fa          	endbr64 
    2504:	ff 25 7e 3a 01 00    	jmp    *0x13a7e(%rip)        # 15f88 <perror@GLIBC_2.2.5>
    250a:	66 0f 1f 44 00 00    	nopw   0x0(%rax,%rax,1)
    2510:	f3 0f 1e fa          	endbr64 
    2514:	ff 25 76 3a 01 00    	jmp    *0x13a76(%rip)        # 15f90 <sysconf@GLIBC_2.2.5>
    251a:	66 0f 1f 44 00 00    	nopw   0x0(%rax,%rax,1)
    2520:	f3 0f 1e fa          	endbr64 
    2524:	ff 25 6e 3a 01 00    	jmp    *0x13a6e(%rip)        # 15f98 <__memset_chk@GLIBC_2.3.4>
    252a:	66 0f 1f 44 00 00    	nopw   0x0(%rax,%rax,1)
    2530:	f3 0f 1e fa          	endbr64 
    2534:	ff 25 66 3a 01 00    	jmp    *0x13a66(%rip)        # 15fa0 <exit@GLIBC_2.2.5>
    253a:	66 0f 1f 44 00 00    	nopw   0x0(%rax,%rax,1)
    2540:	f3 0f 1e fa          	endbr64 
    2544:	ff 25 5e 3a 01 00    	jmp    *0x13a5e(%rip)        # 15fa8 <fwrite@GLIBC_2.2.5>
    254a:	66 0f 1f 44 00 00    	nopw   0x0(%rax,%rax,1)
    2550:	f3 0f 1e fa          	endbr64 
    2554:	ff 25 56 3a 01 00    	jmp    *0x13a56(%rip)        # 15fb0 <__fprintf_chk@GLIBC_2.3.4>
    255a:	66 0f 1f 44 00 00    	nopw   0x0(%rax,%rax,1)
    2560:	f3 0f 1e fa          	endbr64 
    2564:	ff 25 4e 3a 01 00    	jmp    *0x13a4e(%rip)        # 15fb8 <strstr@GLIBC_2.2.5>
    256a:	66 0f 1f 44 00 00    	nopw   0x0(%rax,%rax,1)
    2570:	f3 0f 1e fa          	endbr64 
    2574:	ff 25 46 3a 01 00    	jmp    *0x13a46(%rip)        # 15fc0 <rand@GLIBC_2.2.5>
    257a:	66 0f 1f 44 00 00    	nopw   0x0(%rax,%rax,1)
    2580:	f3 0f 1e fa          	endbr64 
    2584:	ff 25 3e 3a 01 00    	jmp    *0x13a3e(%rip)        # 15fc8 <__ctype_b_loc@GLIBC_2.3>
    258a:	66 0f 1f 44 00 00    	nopw   0x0(%rax,%rax,1)
    2590:	f3 0f 1e fa          	endbr64 
    2594:	ff 25 36 3a 01 00    	jmp    *0x13a36(%rip)        # 15fd0 <__sprintf_chk@GLIBC_2.3.4>
    259a:	66 0f 1f 44 00 00    	nopw   0x0(%rax,%rax,1)

Disassembly of section .text:

00000000000025a0 <main>:
    25a0:	f3 0f 1e fa          	endbr64 
    25a4:	41 57                	push   %r15
    25a6:	41 56                	push   %r14
    25a8:	41 55                	push   %r13
    25aa:	41 54                	push   %r12
    25ac:	55                   	push   %rbp
    25ad:	53                   	push   %rbx
    25ae:	48 83 ec 38          	sub    $0x38,%rsp
    25b2:	64 48 8b 04 25 28 00 	mov    %fs:0x28,%rax
    25b9:	00 00 
    25bb:	48 89 44 24 28       	mov    %rax,0x28(%rsp)
    25c0:	48 8b 05 19 45 01 00 	mov    0x14519(%rip),%rax        # 16ae0 <stderr@GLIBC_2.2.5>
    25c7:	48 89 05 82 86 01 00 	mov    %rax,0x18682(%rip)        # 1ac50 <efd>
    25ce:	83 ff 01             	cmp    $0x1,%edi
    25d1:	0f 8e 9b 00 00 00    	jle    2672 <main+0xd2>
    25d7:	41 89 fc             	mov    %edi,%r12d
    25da:	48 89 f5             	mov    %rsi,%rbp
    25dd:	4c 8d 2d 8c dc 00 00 	lea    0xdc8c(%rip),%r13        # 10270 <_IO_stdin_used+0x270>
    25e4:	0f 1f 40 00          	nopl   0x0(%rax)
    25e8:	48 8b 5d 08          	mov    0x8(%rbp),%rbx
    25ec:	80 3b 2d             	cmpb   $0x2d,(%rbx)
    25ef:	0f 85 7d 00 00 00    	jne    2672 <main+0xd2>
    25f5:	0f be 4b 01          	movsbl 0x1(%rbx),%ecx
    25f9:	8d 41 bf             	lea    -0x41(%rcx),%eax
    25fc:	3c 39                	cmp    $0x39,%al
    25fe:	0f 87 ea 01 00 00    	ja     27ee <main+0x24e>
    2604:	0f b6 c0             	movzbl %al,%eax
    2607:	49 63 44 85 00       	movslq 0x0(%r13,%rax,4),%rax
    260c:	4c 01 e8             	add    %r13,%rax
    260f:	3e ff e0             	notrack jmp *%rax
    2612:	c7 05 30 85 01 00 01 	movl   $0x1,0x18530(%rip)        # 1ab4c <coltrace>
    2619:	00 00 00 
    261c:	c7 05 22 85 01 00 01 	movl   $0x1,0x18522(%rip)        # 1ab48 <readtrail>
    2623:	00 00 00 
    2626:	e8 55 ff ff ff       	call   2580 <_init+0x580>
    262b:	48 0f be 53 02       	movsbq 0x2(%rbx),%rdx
    2630:	48 8b 00             	mov    (%rax),%rax
    2633:	f6 44 50 01 08       	testb  $0x8,0x1(%rax,%rdx,2)
    2638:	0f 85 ae 06 00 00    	jne    2cec <main+0x74c>
    263e:	41 83 fc 02          	cmp    $0x2,%r12d
    2642:	74 2e                	je     2672 <main+0xd2>
    2644:	48 8b 45 10          	mov    0x10(%rbp),%rax
    2648:	80 38 2d             	cmpb   $0x2d,(%rax)
    264b:	74 13                	je     2660 <main+0xc0>
    264d:	48 89 05 9c 8e 01 00 	mov    %rax,0x18e9c(%rip)        # 1b4f0 <trailfilename>
    2654:	41 83 ec 01          	sub    $0x1,%r12d
    2658:	48 83 c5 08          	add    $0x8,%rbp
    265c:	0f 1f 40 00          	nopl   0x0(%rax)
    2660:	41 83 ec 01          	sub    $0x1,%r12d
    2664:	48 83 c5 08          	add    $0x8,%rbp
    2668:	41 83 fc 01          	cmp    $0x1,%r12d
    266c:	0f 85 76 ff ff ff    	jne    25e8 <main+0x48>
    2672:	83 3d 17 6b 01 00 00 	cmpl   $0x0,0x16b17(%rip)        # 19190 <do_hashgen>
    2679:	0f 85 57 07 00 00    	jne    2dd6 <main+0x836>
    267f:	83 3d a6 84 01 00 00 	cmpl   $0x0,0x184a6(%rip)        # 1ab2c <fairness>
    2686:	8b 05 d4 84 01 00    	mov    0x184d4(%rip),%eax        # 1ab60 <a_cycles>
    268c:	0f 85 75 06 00 00    	jne    2d07 <main+0x767>
    2692:	85 c0                	test   %eax,%eax
    2694:	0f 85 75 06 00 00    	jne    2d0f <main+0x76f>
    269a:	48 8d 05 3f c8 00 00 	lea    0xc83f(%rip),%rax        # eee0 <dfs_uerror>
    26a1:	83 3d b0 3a 01 00 20 	cmpl   $0x20,0x13ab0(%rip)        # 16158 <ssize>
    26a8:	48 8d 15 61 09 00 00 	lea    0x961(%rip),%rdx        # 3010 <d_sfh>
    26af:	48 89 05 aa 7a 01 00 	mov    %rax,0x17aaa(%rip)        # 1a160 <uerror>
    26b6:	48 8d 05 c3 7c 00 00 	lea    0x7cc3(%rip),%rax        # a380 <dfs_Uerror>
    26bd:	48 89 05 94 7a 01 00 	mov    %rax,0x17a94(%rip)        # 1a158 <Uerror>
    26c4:	48 8d 05 55 0a 00 00 	lea    0xa55(%rip),%rax        # 3120 <d_hash>
    26cb:	48 0f 4e c2          	cmovle %rdx,%rax
    26cf:	80 3d 98 7a 01 00 00 	cmpb   $0x0,0x17a98(%rip)        # 1a16e <iterative>
    26d6:	48 89 05 73 7a 01 00 	mov    %rax,0x17a73(%rip)        # 1a150 <hasher>
    26dd:	74 35                	je     2714 <main+0x174>
    26df:	48 81 3d 46 39 01 00 	cmpq   $0x1b6,0x13946(%rip)        # 16030 <TMODE>
    26e6:	b6 01 00 00 
    26ea:	74 28                	je     2714 <main+0x174>
    26ec:	48 8b 0d 5d 85 01 00 	mov    0x1855d(%rip),%rcx        # 1ac50 <efd>
    26f3:	ba 2a 00 00 00       	mov    $0x2a,%edx
    26f8:	be 01 00 00 00       	mov    $0x1,%esi
    26fd:	48 8d 3d 24 02 01 00 	lea    0x10224(%rip),%rdi        # 12928 <CSWTCH.1491+0x25d0>
    2704:	48 c7 05 21 39 01 00 	movq   $0x1b6,0x13921(%rip)        # 16030 <TMODE>
    270b:	b6 01 00 00 
    270f:	e8 2c fe ff ff       	call   2540 <_init+0x540>
    2714:	48 8b 05 45 42 01 00 	mov    0x14245(%rip),%rax        # 16960 <maxdepth>
    271b:	80 3d 4c 7a 01 00 00 	cmpb   $0x0,0x17a4c(%rip)        # 1a16e <iterative>
    2722:	48 89 05 2f 42 01 00 	mov    %rax,0x1422f(%rip)        # 16958 <omaxdepth>
    2729:	74 0d                	je     2738 <main+0x198>
    272b:	83 3d 2e 84 01 00 00 	cmpl   $0x0,0x1842e(%rip)        # 1ab60 <a_cycles>
    2732:	0f 85 4c 07 00 00    	jne    2e84 <main+0x8e4>
    2738:	48 83 3d 20 42 01 00 	cmpq   $0x0,0x14220(%rip)        # 16960 <maxdepth>
    273f:	00 
    2740:	0f 8e 95 04 00 00    	jle    2bdb <main+0x63b>
    2746:	83 3d 0b 3a 01 00 01 	cmpl   $0x1,0x13a0b(%rip)        # 16158 <ssize>
    274d:	0f 8e 88 04 00 00    	jle    2bdb <main+0x63b>
    2753:	80 3d 14 7a 01 00 00 	cmpb   $0x0,0x17a14(%rip)        # 1a16e <iterative>
    275a:	8b 05 00 84 01 00    	mov    0x18400(%rip),%eax        # 1ab60 <a_cycles>
    2760:	0f 84 9d 06 00 00    	je     2e03 <main+0x863>
    2766:	85 c0                	test   %eax,%eax
    2768:	0f 84 72 06 00 00    	je     2de0 <main+0x840>
    276e:	83 3d b7 83 01 00 01 	cmpl   $0x1,0x183b7(%rip)        # 1ab2c <fairness>
    2775:	19 c0                	sbb    %eax,%eax
    2777:	83 e0 fe             	and    $0xfffffffe,%eax
    277a:	83 c0 03             	add    $0x3,%eax
    277d:	48 8d 35 fc 4a 00 00 	lea    0x4afc(%rip),%rsi        # 7280 <stopped>
    2784:	bf 02 00 00 00       	mov    $0x2,%edi
    2789:	89 05 f1 84 01 00    	mov    %eax,0x184f1(%rip)        # 1ac80 <S_A>
    278f:	e8 9c fc ff ff       	call   2430 <_init+0x430>
    2794:	8b 0d be 39 01 00    	mov    0x139be(%rip),%ecx        # 16158 <ssize>
    279a:	b8 01 00 00 00       	mov    $0x1,%eax
    279f:	48 d3 e0             	shl    %cl,%rax
    27a2:	48 83 e8 01          	sub    $0x1,%rax
    27a6:	48 89 05 53 82 01 00 	mov    %rax,0x18253(%rip)        # 1aa00 <mask>
    27ad:	48 89 05 44 82 01 00 	mov    %rax,0x18244(%rip)        # 1a9f8 <nmask>
    27b4:	48 8b 05 a5 41 01 00 	mov    0x141a5(%rip),%rax        # 16960 <maxdepth>
    27bb:	48 8d 78 03          	lea    0x3(%rax),%rdi
    27bf:	48 6b ff 38          	imul   $0x38,%rdi,%rdi
    27c3:	e8 88 4b 00 00       	call   7350 <emalloc>
    27c8:	48 83 c0 38          	add    $0x38,%rax
    27cc:	48 89 05 8d 84 01 00 	mov    %rax,0x1848d(%rip)        # 1ac60 <trail>
    27d3:	48 89 05 7e 84 01 00 	mov    %rax,0x1847e(%rip)        # 1ac58 <trpt>
    27da:	e8 71 d4 00 00       	call   fc50 <run>
    27df:	c7 05 27 84 01 00 01 	movl   $0x1,0x18427(%rip)        # 1ac10 <done>
    27e6:	00 00 00 
    27e9:	e8 52 42 00 00       	call   6a40 <wrapup>
    27ee:	48 8b 3d 5b 84 01 00 	mov    0x1845b(%rip),%rdi        # 1ac50 <efd>
    27f5:	48 8d 15 25 eb 00 00 	lea    0xeb25(%rip),%rdx        # 11321 <CSWTCH.1491+0xfc9>
    27fc:	be 02 00 00 00       	mov    $0x2,%esi
    2801:	31 c0                	xor    %eax,%eax
    2803:	e8 48 fd ff ff       	call   2550 <_init+0x550>
    2808:	48 8b 3d 41 84 01 00 	mov    0x18441(%rip),%rdi        # 1ac50 <efd>
    280f:	e8 5c 28 00 00       	call   5070 <usage>
    2814:	48 8b 0d c5 42 01 00 	mov    0x142c5(%rip),%rcx        # 16ae0 <stderr@GLIBC_2.2.5>
    281b:	ba 21 00 00 00       	mov    $0x21,%edx
    2820:	be 01 00 00 00       	mov    $0x1,%esi
    2825:	48 8d 3d 24 ff 00 00 	lea    0xff24(%rip),%rdi        # 12750 <CSWTCH.1491+0x23f8>
    282c:	e8 0f fd ff ff       	call   2540 <_init+0x540>
    2831:	e9 2a fe ff ff       	jmp    2660 <main+0xc0>
    2836:	c6 05 31 79 01 00 02 	movb   $0x2,0x17931(%rip)        # 1a16e <iterative>
    283d:	c6 05 27 79 01 00 01 	movb   $0x1,0x17927(%rip)        # 1a16b <every_error>
    2844:	e9 17 fe ff ff       	jmp    2660 <main+0xc0>
    2849:	48 8b 0d 90 42 01 00 	mov    0x14290(%rip),%rcx        # 16ae0 <stderr@GLIBC_2.2.5>
    2850:	ba 2c 00 00 00       	mov    $0x2c,%edx
    2855:	be 01 00 00 00       	mov    $0x1,%esi
    285a:	48 8d 3d 17 ff 00 00 	lea    0xff17(%rip),%rdi        # 12778 <CSWTCH.1491+0x2420>
    2861:	e8 da fc ff ff       	call   2540 <_init+0x540>
    2866:	e8 15 fd ff ff       	call   2580 <_init+0x580>
    286b:	48 8b 55 08          	mov    0x8(%rbp),%rdx
    286f:	48 8b 00             	mov    (%rax),%rax
    2872:	48 0f be 52 02       	movsbq 0x2(%rdx),%rdx
    2877:	f6 44 50 01 08       	testb  $0x8,0x1(%rax,%rdx,2)
    287c:	0f 85 de fd ff ff    	jne    2660 <main+0xc0>
    2882:	41 83 fc 02          	cmp    $0x2,%r12d
    2886:	0f 84 e6 fd ff ff    	je     2672 <main+0xd2>
    288c:	48 8b 45 10          	mov    0x10(%rbp),%rax
    2890:	80 38 2d             	cmpb   $0x2d,(%rax)
    2893:	0f 84 c7 fd ff ff    	je     2660 <main+0xc0>
    2899:	41 83 ec 01          	sub    $0x1,%r12d
    289d:	48 83 c5 08          	add    $0x8,%rbp
    28a1:	e9 ba fd ff ff       	jmp    2660 <main+0xc0>
    28a6:	c6 05 bf 78 01 00 01 	movb   $0x1,0x178bf(%rip)        # 1a16c <like_java>
    28ad:	e9 ae fd ff ff       	jmp    2660 <main+0xc0>
    28b2:	c6 05 b4 78 01 00 01 	movb   $0x1,0x178b4(%rip)        # 1a16d <exclusive>
    28b9:	e9 a2 fd ff ff       	jmp    2660 <main+0xc0>
    28be:	48 8d 7b 02          	lea    0x2(%rbx),%rdi
    28c2:	ba 0a 00 00 00       	mov    $0xa,%edx
    28c7:	31 f6                	xor    %esi,%esi
    28c9:	e8 82 fb ff ff       	call   2450 <_init+0x450>
    28ce:	89 05 84 38 01 00    	mov    %eax,0x13884(%rip)        # 16158 <ssize>
    28d4:	e9 87 fd ff ff       	jmp    2660 <main+0xc0>
    28d9:	83 05 78 82 01 00 01 	addl   $0x1,0x18278(%rip)        # 1ab58 <verbose>
    28e0:	e9 7b fd ff ff       	jmp    2660 <main+0xc0>
    28e5:	c6 05 7d 78 01 00 01 	movb   $0x1,0x1787d(%rip)        # 1a169 <noends>
    28ec:	e9 6f fd ff ff       	jmp    2660 <main+0xc0>
    28f1:	83 05 28 82 01 00 01 	addl   $0x1,0x18228(%rip)        # 1ab20 <dodot>
    28f8:	83 05 31 82 01 00 01 	addl   $0x1,0x18231(%rip)        # 1ab30 <state_tables>
    28ff:	e9 5c fd ff ff       	jmp    2660 <main+0xc0>
    2904:	c6 05 5f 78 01 00 01 	movb   $0x1,0x1785f(%rip)        # 1a16a <noasserts>
    290b:	e9 50 fd ff ff       	jmp    2660 <main+0xc0>
    2910:	c7 05 3a 82 01 00 01 	movl   $0x1,0x1823a(%rip)        # 1ab54 <signoff>
    2917:	00 00 00 
    291a:	e9 41 fd ff ff       	jmp    2660 <main+0xc0>
    291f:	48 8b 05 9a 41 01 00 	mov    0x1419a(%rip),%rax        # 16ac0 <stdout@GLIBC_2.2.5>
    2926:	48 89 05 23 83 01 00 	mov    %rax,0x18323(%rip)        # 1ac50 <efd>
    292d:	e9 2e fd ff ff       	jmp    2660 <main+0xc0>
    2932:	48 8d 3d 67 68 01 00 	lea    0x16867(%rip),%rdi        # 191a0 <start_tm>
    2939:	e8 a2 fb ff ff       	call   24e0 <_init+0x4e0>
    293e:	bf 02 00 00 00       	mov    $0x2,%edi
    2943:	48 8d 15 d6 ec 00 00 	lea    0xecd6(%rip),%rdx        # 11620 <CSWTCH.1491+0x12c8>
    294a:	48 8d 35 bf e9 00 00 	lea    0xe9bf(%rip),%rsi        # 11310 <CSWTCH.1491+0xfb8>
    2951:	48 89 05 68 68 01 00 	mov    %rax,0x16868(%rip)        # 191c0 <start_time>
    2958:	31 c0                	xor    %eax,%eax
    295a:	e8 51 fb ff ff       	call   24b0 <_init+0x4b0>
    295f:	e8 cc b8 00 00       	call   e230 <to_compile>
    2964:	bf 02 00 00 00       	mov    $0x2,%edi
    2969:	e8 c2 1a 00 00       	call   4430 <pan_exit>
    296e:	e8 0d fc ff ff       	call   2580 <_init+0x580>
    2973:	48 0f be 53 02       	movsbq 0x2(%rbx),%rdx
    2978:	48 8b 00             	mov    (%rax),%rax
    297b:	f6 44 50 01 08       	testb  $0x8,0x1(%rax,%rdx,2)
    2980:	0f 85 01 04 00 00    	jne    2d87 <main+0x7e7>
    2986:	48 c7 05 9f 36 01 00 	movq   $0x124,0x1369f(%rip)        # 16030 <TMODE>
    298d:	24 01 00 00 
    2991:	e9 ca fc ff ff       	jmp    2660 <main+0xc0>
    2996:	c7 05 a0 81 01 00 01 	movl   $0x1,0x181a0(%rip)        # 1ab40 <silent>
    299d:	00 00 00 
    29a0:	e9 77 fc ff ff       	jmp    261c <main+0x7c>
    29a5:	80 7b 02 53          	cmpb   $0x53,0x2(%rbx)
    29a9:	0f 85 2c 02 00 00    	jne    2bdb <main+0x63b>
    29af:	48 8d 7b 03          	lea    0x3(%rbx),%rdi
    29b3:	ba 0a 00 00 00       	mov    $0xa,%edx
    29b8:	31 f6                	xor    %esi,%esi
    29ba:	e8 91 fa ff ff       	call   2450 <_init+0x450>
    29bf:	89 05 83 37 01 00    	mov    %eax,0x13783(%rip)        # 16148 <s_rand>
    29c5:	e9 96 fc ff ff       	jmp    2660 <main+0xc0>
    29ca:	48 8d 7b 02          	lea    0x2(%rbx),%rdi
    29ce:	ba 0a 00 00 00       	mov    $0xa,%edx
    29d3:	31 f6                	xor    %esi,%esi
    29d5:	e8 76 fa ff ff       	call   2450 <_init+0x450>
    29da:	66 0f ef c0          	pxor   %xmm0,%xmm0
    29de:	f2 0f 2a c0          	cvtsi2sd %eax,%xmm0
    29e2:	f2 0f 59 05 8e 04 01 	mulsd  0x1048e(%rip),%xmm0        # 12e78 <CSWTCH.1491+0x2b20>
    29e9:	00 
    29ea:	f2 0f 11 05 4e 82 01 	movsd  %xmm0,0x1824e(%rip)        # 1ac40 <quota>
    29f1:	00 
    29f2:	e9 69 fc ff ff       	jmp    2660 <main+0xc0>
    29f7:	83 3d 4a 81 01 00 00 	cmpl   $0x0,0x1814a(%rip)        # 1ab48 <readtrail>
    29fe:	4c 8d 73 02          	lea    0x2(%rbx),%r14
    2a02:	75 18                	jne    2a1c <main+0x47c>
    2a04:	e8 77 fb ff ff       	call   2580 <_init+0x580>
    2a09:	48 0f be 53 02       	movsbq 0x2(%rbx),%rdx
    2a0e:	48 8b 00             	mov    (%rax),%rax
    2a11:	f6 44 50 01 08       	testb  $0x8,0x1(%rax,%rdx,2)
    2a16:	0f 85 40 04 00 00    	jne    2e5c <main+0x8bc>
    2a1c:	ba 0a 00 00 00       	mov    $0xa,%edx
    2a21:	31 f6                	xor    %esi,%esi
    2a23:	4c 89 f7             	mov    %r14,%rdi
    2a26:	c7 05 18 81 01 00 01 	movl   $0x1,0x18118(%rip)        # 1ab48 <readtrail>
    2a2d:	00 00 00 
    2a30:	e8 1b fa ff ff       	call   2450 <_init+0x450>
    2a35:	89 05 21 37 01 00    	mov    %eax,0x13721(%rip)        # 1615c <onlyproc>
    2a3b:	41 83 fc 02          	cmp    $0x2,%r12d
    2a3f:	0f 85 ff fb ff ff    	jne    2644 <main+0xa4>
    2a45:	e9 28 fc ff ff       	jmp    2672 <main+0xd2>
    2a4a:	48 8d 7b 01          	lea    0x1(%rbx),%rdi
    2a4e:	ba 09 00 00 00       	mov    $0x9,%edx
    2a53:	48 8d 35 ac e8 00 00 	lea    0xe8ac(%rip),%rsi        # 11306 <CSWTCH.1491+0xfae>
    2a5a:	e8 d1 f8 ff ff       	call   2330 <_init+0x330>
    2a5f:	85 c0                	test   %eax,%eax
    2a61:	0f 84 ef 02 00 00    	je     2d56 <main+0x7b6>
    2a67:	80 7b 02 00          	cmpb   $0x0,0x2(%rbx)
    2a6b:	0f 84 ef fb ff ff    	je     2660 <main+0xc0>
    2a71:	48 83 c3 02          	add    $0x2,%rbx
    2a75:	48 89 1d f4 3f 01 00 	mov    %rbx,0x13ff4(%rip)        # 16a70 <tprefix>
    2a7c:	e9 df fb ff ff       	jmp    2660 <main+0xc0>
    2a81:	48 8d 7b 01          	lea    0x1(%rbx),%rdi
    2a85:	ba 05 00 00 00       	mov    $0x5,%edx
    2a8a:	48 8d 35 6f e8 00 00 	lea    0xe86f(%rip),%rsi        # 11300 <CSWTCH.1491+0xfa8>
    2a91:	e8 9a f8 ff ff       	call   2330 <_init+0x330>
    2a96:	85 c0                	test   %eax,%eax
    2a98:	0f 85 7e fb ff ff    	jne    261c <main+0x7c>
    2a9e:	81 3d a0 36 01 00 39 	cmpl   $0x3039,0x136a0(%rip)        # 16148 <s_rand>
    2aa5:	30 00 00 
    2aa8:	0f 84 5a 04 00 00    	je     2f08 <main+0x968>
    2aae:	8b 3d 94 36 01 00    	mov    0x13694(%rip),%edi        # 16148 <s_rand>
    2ab4:	8d 47 01             	lea    0x1(%rdi),%eax
    2ab7:	89 05 8b 36 01 00    	mov    %eax,0x1368b(%rip)        # 16148 <s_rand>
    2abd:	e8 2e f9 ff ff       	call   23f0 <_init+0x3f0>
    2ac2:	ba 33 00 00 00       	mov    $0x33,%edx
    2ac7:	be 01 00 00 00       	mov    $0x1,%esi
    2acc:	48 8b 0d 7d 81 01 00 	mov    0x1817d(%rip),%rcx        # 1ac50 <efd>
    2ad3:	48 8d 3d 76 fd 00 00 	lea    0xfd76(%rip),%rdi        # 12850 <CSWTCH.1491+0x24f8>
    2ada:	e8 61 fa ff ff       	call   2540 <_init+0x540>
    2adf:	bf 01 00 00 00       	mov    $0x1,%edi
    2ae4:	e8 47 fa ff ff       	call   2530 <_init+0x530>
    2ae9:	c7 05 69 80 01 00 01 	movl   $0x1,0x18069(%rip)        # 1ab5c <strict>
    2af0:	00 00 00 
    2af3:	e9 68 fb ff ff       	jmp    2660 <main+0xc0>
    2af8:	4c 8d 73 01          	lea    0x1(%rbx),%r14
    2afc:	ba 09 00 00 00       	mov    $0x9,%edx
    2b01:	48 8d 35 d1 e7 00 00 	lea    0xe7d1(%rip),%rsi        # 112d9 <CSWTCH.1491+0xf81>
    2b08:	4c 89 f7             	mov    %r14,%rdi
    2b0b:	e8 20 f8 ff ff       	call   2330 <_init+0x330>
    2b10:	4c 8b 3d 39 81 01 00 	mov    0x18139(%rip),%r15        # 1ac50 <efd>
    2b17:	85 c0                	test   %eax,%eax
    2b19:	0f 84 1a 03 00 00    	je     2e39 <main+0x899>
    2b1f:	ba 08 00 00 00       	mov    $0x8,%edx
    2b24:	48 8d 35 b8 e7 00 00 	lea    0xe7b8(%rip),%rsi        # 112e3 <CSWTCH.1491+0xf8b>
    2b2b:	4c 89 f7             	mov    %r14,%rdi
    2b2e:	e8 fd f7 ff ff       	call   2330 <_init+0x330>
    2b33:	85 c0                	test   %eax,%eax
    2b35:	0f 84 fe 02 00 00    	je     2e39 <main+0x899>
    2b3b:	ba 09 00 00 00       	mov    $0x9,%edx
    2b40:	48 8d 35 a5 e7 00 00 	lea    0xe7a5(%rip),%rsi        # 112ec <CSWTCH.1491+0xf94>
    2b47:	4c 89 f7             	mov    %r14,%rdi
    2b4a:	e8 e1 f7 ff ff       	call   2330 <_init+0x330>
    2b4f:	85 c0                	test   %eax,%eax
    2b51:	0f 84 e2 02 00 00    	je     2e39 <main+0x899>
    2b57:	ba 09 00 00 00       	mov    $0x9,%edx
    2b5c:	48 8d 35 93 e7 00 00 	lea    0xe793(%rip),%rsi        # 112f6 <CSWTCH.1491+0xf9e>
    2b63:	4c 89 f7             	mov    %r14,%rdi
    2b66:	e8 c5 f7 ff ff       	call   2330 <_init+0x330>
    2b6b:	85 c0                	test   %eax,%eax
    2b6d:	0f 84 c6 02 00 00    	je     2e39 <main+0x899>
    2b73:	48 89 d9             	mov    %rbx,%rcx
    2b76:	48 8d 15 b3 fc 00 00 	lea    0xfcb3(%rip),%rdx        # 12830 <CSWTCH.1491+0x24d8>
    2b7d:	4c 89 ff             	mov    %r15,%rdi
    2b80:	31 c0                	xor    %eax,%eax
    2b82:	be 02 00 00 00       	mov    $0x2,%esi
    2b87:	e8 c4 f9 ff ff       	call   2550 <_init+0x550>
    2b8c:	e9 cf fa ff ff       	jmp    2660 <main+0xc0>
    2b91:	c7 05 8d 7f 01 00 01 	movl   $0x1,0x17f8d(%rip)        # 1ab28 <no_rck>
    2b98:	00 00 00 
    2b9b:	e9 c0 fa ff ff       	jmp    2660 <main+0xc0>
    2ba0:	48 8d 7b 02          	lea    0x2(%rbx),%rdi
    2ba4:	ba 0a 00 00 00       	mov    $0xa,%edx
    2ba9:	31 f6                	xor    %esi,%esi
    2bab:	e8 a0 f8 ff ff       	call   2450 <_init+0x450>
    2bb0:	48 98                	cltq   
    2bb2:	48 89 05 a7 3d 01 00 	mov    %rax,0x13da7(%rip)        # 16960 <maxdepth>
    2bb9:	e9 a2 fa ff ff       	jmp    2660 <main+0xc0>
    2bbe:	48 8b 0d 8b 80 01 00 	mov    0x1808b(%rip),%rcx        # 1ac50 <efd>
    2bc5:	ba 2b 00 00 00       	mov    $0x2b,%edx
    2bca:	be 01 00 00 00       	mov    $0x1,%esi
    2bcf:	48 8d 3d 4a fb 00 00 	lea    0xfb4a(%rip),%rdi        # 12720 <CSWTCH.1491+0x23c8>
    2bd6:	e8 65 f9 ff ff       	call   2540 <_init+0x540>
    2bdb:	48 8b 3d 6e 80 01 00 	mov    0x1806e(%rip),%rdi        # 1ac50 <efd>
    2be2:	e8 89 24 00 00       	call   5070 <usage>
    2be7:	48 8d 7b 01          	lea    0x1(%rbx),%rdi
    2beb:	ba 09 00 00 00       	mov    $0x9,%edx
    2bf0:	48 8d 35 d8 e6 00 00 	lea    0xe6d8(%rip),%rsi        # 112cf <CSWTCH.1491+0xf77>
    2bf7:	e8 34 f7 ff ff       	call   2330 <_init+0x330>
    2bfc:	85 c0                	test   %eax,%eax
    2bfe:	0f 85 61 01 00 00    	jne    2d65 <main+0x7c5>
    2c04:	80 0d 1e 80 01 00 01 	orb    $0x1,0x1801e(%rip)        # 1ac29 <reversing>
    2c0b:	e9 50 fa ff ff       	jmp    2660 <main+0xc0>
    2c10:	48 8d 7b 01          	lea    0x1(%rbx),%rdi
    2c14:	ba 04 00 00 00       	mov    $0x4,%edx
    2c19:	48 8d 35 e1 e6 00 00 	lea    0xe6e1(%rip),%rsi        # 11301 <CSWTCH.1491+0xfa9>
    2c20:	e8 0b f7 ff ff       	call   2330 <_init+0x330>
    2c25:	85 c0                	test   %eax,%eax
    2c27:	0f 84 4b 01 00 00    	je     2d78 <main+0x7d8>
    2c2d:	4c 0f be 73 02       	movsbq 0x2(%rbx),%r14
    2c32:	45 84 f6             	test   %r14b,%r14b
    2c35:	74 a4                	je     2bdb <main+0x63b>
    2c37:	e8 44 f9 ff ff       	call   2580 <_init+0x580>
    2c3c:	48 8b 00             	mov    (%rax),%rax
    2c3f:	42 f6 44 70 01 08    	testb  $0x8,0x1(%rax,%r14,2)
    2c45:	74 94                	je     2bdb <main+0x63b>
    2c47:	ba 0a 00 00 00       	mov    $0xa,%edx
    2c4c:	48 8d 7b 02          	lea    0x2(%rbx),%rdi
    2c50:	31 f6                	xor    %esi,%esi
    2c52:	e8 f9 f7 ff ff       	call   2450 <_init+0x450>
    2c57:	b9 f4 01 00 00       	mov    $0x1f4,%ecx
    2c5c:	31 d2                	xor    %edx,%edx
    2c5e:	48 98                	cltq   
    2c60:	48 f7 f1             	div    %rcx
    2c63:	88 15 bf 7f 01 00    	mov    %dl,0x17fbf(%rip)        # 1ac28 <HASH_NR>
    2c69:	e9 f2 f9 ff ff       	jmp    2660 <main+0xc0>
    2c6e:	c7 05 d8 7e 01 00 01 	movl   $0x1,0x17ed8(%rip)        # 1ab50 <gui>
    2c75:	00 00 00 
    2c78:	e9 9f f9 ff ff       	jmp    261c <main+0x7c>
    2c7d:	c7 05 a5 7e 01 00 01 	movl   $0x1,0x17ea5(%rip)        # 1ab2c <fairness>
    2c84:	00 00 00 
    2c87:	e9 d4 f9 ff ff       	jmp    2660 <main+0xc0>
    2c8c:	31 d2                	xor    %edx,%edx
    2c8e:	c6 05 d6 74 01 00 01 	movb   $0x1,0x174d6(%rip)        # 1a16b <every_error>
    2c95:	89 15 c9 34 01 00    	mov    %edx,0x134c9(%rip)        # 16164 <upto>
    2c9b:	c7 05 7f 7e 01 00 01 	movl   $0x1,0x17e7f(%rip)        # 1ab24 <Nr_Trails>
    2ca2:	00 00 00 
    2ca5:	e9 b6 f9 ff ff       	jmp    2660 <main+0xc0>
    2caa:	83 05 7f 7e 01 00 01 	addl   $0x1,0x17e7f(%rip)        # 1ab30 <state_tables>
    2cb1:	e9 aa f9 ff ff       	jmp    2660 <main+0xc0>
    2cb6:	48 8d 7b 02          	lea    0x2(%rbx),%rdi
    2cba:	ba 0a 00 00 00       	mov    $0xa,%edx
    2cbf:	31 f6                	xor    %esi,%esi
    2cc1:	e8 8a f7 ff ff       	call   2450 <_init+0x450>
    2cc6:	89 05 98 34 01 00    	mov    %eax,0x13498(%rip)        # 16164 <upto>
    2ccc:	e9 8f f9 ff ff       	jmp    2660 <main+0xc0>
    2cd1:	c6 05 90 74 01 00 01 	movb   $0x1,0x17490(%rip)        # 1a168 <bounded>
    2cd8:	e9 83 f9 ff ff       	jmp    2660 <main+0xc0>
    2cdd:	c7 05 79 7e 01 00 01 	movl   $0x1,0x17e79(%rip)        # 1ab60 <a_cycles>
    2ce4:	00 00 00 
    2ce7:	e9 74 f9 ff ff       	jmp    2660 <main+0xc0>
    2cec:	48 8d 7b 02          	lea    0x2(%rbx),%rdi
    2cf0:	ba 0a 00 00 00       	mov    $0xa,%edx
    2cf5:	31 f6                	xor    %esi,%esi
    2cf7:	e8 54 f7 ff ff       	call   2450 <_init+0x450>
    2cfc:	89 05 42 7e 01 00    	mov    %eax,0x17e42(%rip)        # 1ab44 <whichtrail>
    2d02:	e9 59 f9 ff ff       	jmp    2660 <main+0xc0>
    2d07:	85 c0                	test   %eax,%eax
    2d09:	0f 84 01 01 00 00    	je     2e10 <main+0x870>
    2d0f:	48 8b 0d 3a 7f 01 00 	mov    0x17f3a(%rip),%rcx        # 1ac50 <efd>
    2d16:	ba 27 00 00 00       	mov    $0x27,%edx
    2d1b:	be 01 00 00 00       	mov    $0x1,%esi
    2d20:	48 8d 3d b1 fb 00 00 	lea    0xfbb1(%rip),%rdi        # 128d8 <CSWTCH.1491+0x2580>
    2d27:	e8 14 f8 ff ff       	call   2540 <_init+0x540>
    2d2c:	ba 25 00 00 00       	mov    $0x25,%edx
    2d31:	48 8b 0d 18 7f 01 00 	mov    0x17f18(%rip),%rcx        # 1ac50 <efd>
    2d38:	be 01 00 00 00       	mov    $0x1,%esi
    2d3d:	48 8d 3d bc fb 00 00 	lea    0xfbbc(%rip),%rdi        # 12900 <CSWTCH.1491+0x25a8>
    2d44:	e8 f7 f7 ff ff       	call   2540 <_init+0x540>
    2d49:	31 c0                	xor    %eax,%eax
    2d4b:	89 05 0f 7e 01 00    	mov    %eax,0x17e0f(%rip)        # 1ab60 <a_cycles>
    2d51:	e9 44 f9 ff ff       	jmp    269a <main+0xfa>
    2d56:	c7 05 58 7e 01 00 01 	movl   $0x1,0x17e58(%rip)        # 1abb8 <t_reverse>
    2d5d:	00 00 00 
    2d60:	e9 fb f8 ff ff       	jmp    2660 <main+0xc0>
    2d65:	c6 05 02 74 01 00 01 	movb   $0x1,0x17402(%rip)        # 1a16e <iterative>
    2d6c:	c6 05 f8 73 01 00 01 	movb   $0x1,0x173f8(%rip)        # 1a16b <every_error>
    2d73:	e9 e8 f8 ff ff       	jmp    2660 <main+0xc0>
    2d78:	c7 05 0e 64 01 00 01 	movl   $0x1,0x1640e(%rip)        # 19190 <do_hashgen>
    2d7f:	00 00 00 
    2d82:	e9 d9 f8 ff ff       	jmp    2660 <main+0xc0>
    2d87:	31 f6                	xor    %esi,%esi
    2d89:	48 8d 7b 02          	lea    0x2(%rbx),%rdi
    2d8d:	ba 0a 00 00 00       	mov    $0xa,%edx
    2d92:	e8 b9 f6 ff ff       	call   2450 <_init+0x450>
    2d97:	83 3d ba 7d 01 00 00 	cmpl   $0x0,0x17dba(%rip)        # 1ab58 <verbose>
    2d9e:	89 05 14 7e 01 00    	mov    %eax,0x17e14(%rip)        # 1abb8 <t_reverse>
    2da4:	0f 84 b6 f8 ff ff    	je     2660 <main+0xc0>
    2daa:	85 c0                	test   %eax,%eax
    2dac:	48 8d 15 18 e5 00 00 	lea    0xe518(%rip),%rdx        # 112cb <CSWTCH.1491+0xf73>
    2db3:	bf 02 00 00 00       	mov    $0x2,%edi
    2db8:	48 8d 05 73 dd 00 00 	lea    0xdd73(%rip),%rax        # 10b32 <CSWTCH.1491+0x7da>
    2dbf:	48 8d 35 c2 fa 00 00 	lea    0xfac2(%rip),%rsi        # 12888 <CSWTCH.1491+0x2530>
    2dc6:	48 0f 45 d0          	cmovne %rax,%rdx
    2dca:	31 c0                	xor    %eax,%eax
    2dcc:	e8 df f6 ff ff       	call   24b0 <_init+0x4b0>
    2dd1:	e9 8a f8 ff ff       	jmp    2660 <main+0xc0>
    2dd6:	e8 95 20 00 00       	call   4e70 <hashgen>
    2ddb:	e9 9f f8 ff ff       	jmp    267f <main+0xdf>
    2de0:	48 8b 0d 69 7e 01 00 	mov    0x17e69(%rip),%rcx        # 1ac50 <efd>
    2de7:	ba 33 00 00 00       	mov    $0x33,%edx
    2dec:	be 01 00 00 00       	mov    $0x1,%esi
    2df1:	48 8d 3d 98 fb 00 00 	lea    0xfb98(%rip),%rdi        # 12990 <CSWTCH.1491+0x2638>
    2df8:	e8 43 f7 ff ff       	call   2540 <_init+0x540>
    2dfd:	8b 05 5d 7d 01 00    	mov    0x17d5d(%rip),%eax        # 1ab60 <a_cycles>
    2e03:	85 c0                	test   %eax,%eax
    2e05:	0f 84 72 f9 ff ff    	je     277d <main+0x1dd>
    2e0b:	e9 5e f9 ff ff       	jmp    276e <main+0x1ce>
    2e10:	48 8b 0d 39 7e 01 00 	mov    0x17e39(%rip),%rcx        # 1ac50 <efd>
    2e17:	ba 27 00 00 00       	mov    $0x27,%edx
    2e1c:	be 01 00 00 00       	mov    $0x1,%esi
    2e21:	48 8d 3d 88 fa 00 00 	lea    0xfa88(%rip),%rdi        # 128b0 <CSWTCH.1491+0x2558>
    2e28:	e8 13 f7 ff ff       	call   2540 <_init+0x540>
    2e2d:	48 8b 3d 1c 7e 01 00 	mov    0x17e1c(%rip),%rdi        # 1ac50 <efd>
    2e34:	e8 37 22 00 00       	call   5070 <usage>
    2e39:	4c 89 ff             	mov    %r15,%rdi
    2e3c:	48 89 d9             	mov    %rbx,%rcx
    2e3f:	48 8d 15 ba f9 00 00 	lea    0xf9ba(%rip),%rdx        # 12800 <CSWTCH.1491+0x24a8>
    2e46:	31 c0                	xor    %eax,%eax
    2e48:	be 02 00 00 00       	mov    $0x2,%esi
    2e4d:	e8 fe f6 ff ff       	call   2550 <_init+0x550>
    2e52:	bf 01 00 00 00       	mov    $0x1,%edi
    2e57:	e8 d4 f6 ff ff       	call   2530 <_init+0x530>
    2e5c:	31 f6                	xor    %esi,%esi
    2e5e:	ba 0a 00 00 00       	mov    $0xa,%edx
    2e63:	4c 89 f7             	mov    %r14,%rdi
    2e66:	e8 e5 f5 ff ff       	call   2450 <_init+0x450>
    2e6b:	83 f8 01             	cmp    $0x1,%eax
    2e6e:	77 36                	ja     2ea6 <main+0x906>
    2e70:	85 c0                	test   %eax,%eax
    2e72:	0f 85 8c fd ff ff    	jne    2c04 <main+0x664>
    2e78:	80 25 aa 7d 01 00 fe 	andb   $0xfe,0x17daa(%rip)        # 1ac29 <reversing>
    2e7f:	e9 dc f7 ff ff       	jmp    2660 <main+0xc0>
    2e84:	48 8b 0d c5 7d 01 00 	mov    0x17dc5(%rip),%rcx        # 1ac50 <efd>
    2e8b:	ba 32 00 00 00       	mov    $0x32,%edx
    2e90:	be 01 00 00 00       	mov    $0x1,%esi
    2e95:	48 8d 3d bc fa 00 00 	lea    0xfabc(%rip),%rdi        # 12958 <CSWTCH.1491+0x2600>
    2e9c:	e8 9f f6 ff ff       	call   2540 <_init+0x540>
    2ea1:	e9 92 f8 ff ff       	jmp    2738 <main+0x198>
    2ea6:	48 8b 0d a3 7d 01 00 	mov    0x17da3(%rip),%rcx        # 1ac50 <efd>
    2ead:	ba 20 00 00 00       	mov    $0x20,%edx
    2eb2:	be 01 00 00 00       	mov    $0x1,%esi
    2eb7:	48 8d 3d ea f8 00 00 	lea    0xf8ea(%rip),%rdi        # 127a8 <CSWTCH.1491+0x2450>
    2ebe:	e8 7d f6 ff ff       	call   2540 <_init+0x540>
    2ec3:	83 3d 8e 7c 01 00 00 	cmpl   $0x0,0x17c8e(%rip)        # 1ab58 <verbose>
    2eca:	0f 84 90 f7 ff ff    	je     2660 <main+0xc0>
    2ed0:	f6 05 52 7d 01 00 01 	testb  $0x1,0x17d52(%rip)        # 1ac29 <reversing>
    2ed7:	48 8d 05 54 dc 00 00 	lea    0xdc54(%rip),%rax        # 10b32 <CSWTCH.1491+0x7da>
    2ede:	48 8d 0d e6 e3 00 00 	lea    0xe3e6(%rip),%rcx        # 112cb <CSWTCH.1491+0xf73>
    2ee5:	48 8b 3d 64 7d 01 00 	mov    0x17d64(%rip),%rdi        # 1ac50 <efd>
    2eec:	48 0f 45 c8          	cmovne %rax,%rcx
    2ef0:	48 8d 15 d9 f8 00 00 	lea    0xf8d9(%rip),%rdx        # 127d0 <CSWTCH.1491+0x2478>
    2ef7:	be 02 00 00 00       	mov    $0x2,%esi
    2efc:	31 c0                	xor    %eax,%eax
    2efe:	e8 4d f6 ff ff       	call   2550 <_init+0x550>
    2f03:	e9 58 f7 ff ff       	jmp    2660 <main+0xc0>
    2f08:	48 89 e7             	mov    %rsp,%rdi
    2f0b:	e8 d0 f5 ff ff       	call   24e0 <_init+0x4e0>
    2f10:	89 05 32 32 01 00    	mov    %eax,0x13232(%rip)        # 16148 <s_rand>
    2f16:	e9 93 fb ff ff       	jmp    2aae <main+0x50e>
    2f1b:	0f 1f 44 00 00       	nopl   0x0(%rax,%rax,1)

0000000000002f20 <_start>:
    2f20:	f3 0f 1e fa          	endbr64 
    2f24:	31 ed                	xor    %ebp,%ebp
    2f26:	49 89 d1             	mov    %rdx,%r9
    2f29:	5e                   	pop    %rsi
    2f2a:	48 89 e2             	mov    %rsp,%rdx
    2f2d:	48 83 e4 f0          	and    $0xfffffffffffffff0,%rsp
    2f31:	50                   	push   %rax
    2f32:	54                   	push   %rsp
    2f33:	45 31 c0             	xor    %r8d,%r8d
    2f36:	31 c9                	xor    %ecx,%ecx
    2f38:	48 8d 3d 61 f6 ff ff 	lea    -0x99f(%rip),%rdi        # 25a0 <main>
    2f3f:	ff 15 93 30 01 00    	call   *0x13093(%rip)        # 15fd8 <__libc_start_main@GLIBC_2.34>
    2f45:	f4                   	hlt    
    2f46:	66 2e 0f 1f 84 00 00 	cs nopw 0x0(%rax,%rax,1)
    2f4d:	00 00 00 

0000000000002f50 <deregister_tm_clones>:
    2f50:	48 8d 3d 51 3b 01 00 	lea    0x13b51(%rip),%rdi        # 16aa8 <__TMC_END__>
    2f57:	48 8d 05 4a 3b 01 00 	lea    0x13b4a(%rip),%rax        # 16aa8 <__TMC_END__>
    2f5e:	48 39 f8             	cmp    %rdi,%rax
    2f61:	74 15                	je     2f78 <deregister_tm_clones+0x28>
    2f63:	48 8b 05 76 30 01 00 	mov    0x13076(%rip),%rax        # 15fe0 <_ITM_deregisterTMCloneTable@Base>
    2f6a:	48 85 c0             	test   %rax,%rax
    2f6d:	74 09                	je     2f78 <deregister_tm_clones+0x28>
    2f6f:	ff e0                	jmp    *%rax
    2f71:	0f 1f 80 00 00 00 00 	nopl   0x0(%rax)
    2f78:	c3                   	ret    
    2f79:	0f 1f 80 00 00 00 00 	nopl   0x0(%rax)

0000000000002f80 <register_tm_clones>:
    2f80:	48 8d 3d 21 3b 01 00 	lea    0x13b21(%rip),%rdi        # 16aa8 <__TMC_END__>
    2f87:	48 8d 35 1a 3b 01 00 	lea    0x13b1a(%rip),%rsi        # 16aa8 <__TMC_END__>
    2f8e:	48 29 fe             	sub    %rdi,%rsi
    2f91:	48 89 f0             	mov    %rsi,%rax
    2f94:	48 c1 ee 3f          	shr    $0x3f,%rsi
    2f98:	48 c1 f8 03          	sar    $0x3,%rax
    2f9c:	48 01 c6             	add    %rax,%rsi
    2f9f:	48 d1 fe             	sar    %rsi
    2fa2:	74 14                	je     2fb8 <register_tm_clones+0x38>
    2fa4:	48 8b 05 45 30 01 00 	mov    0x13045(%rip),%rax        # 15ff0 <_ITM_registerTMCloneTable@Base>
    2fab:	48 85 c0             	test   %rax,%rax
    2fae:	74 08                	je     2fb8 <register_tm_clones+0x38>
    2fb0:	ff e0                	jmp    *%rax
    2fb2:	66 0f 1f 44 00 00    	nopw   0x0(%rax,%rax,1)
    2fb8:	c3                   	ret    
    2fb9:	0f 1f 80 00 00 00 00 	nopl   0x0(%rax)

0000000000002fc0 <__do_global_dtors_aux>:
    2fc0:	f3 0f 1e fa          	endbr64 
    2fc4:	80 3d 1d 3b 01 00 00 	cmpb   $0x0,0x13b1d(%rip)        # 16ae8 <completed.0>
    2fcb:	75 2b                	jne    2ff8 <__do_global_dtors_aux+0x38>
    2fcd:	55                   	push   %rbp
    2fce:	48 83 3d 22 30 01 00 	cmpq   $0x0,0x13022(%rip)        # 15ff8 <__cxa_finalize@GLIBC_2.2.5>
    2fd5:	00 
    2fd6:	48 89 e5             	mov    %rsp,%rbp
    2fd9:	74 0c                	je     2fe7 <__do_global_dtors_aux+0x27>
    2fdb:	48 8b 3d 26 30 01 00 	mov    0x13026(%rip),%rdi        # 16008 <__dso_handle>
    2fe2:	e8 f9 f2 ff ff       	call   22e0 <_init+0x2e0>
    2fe7:	e8 64 ff ff ff       	call   2f50 <deregister_tm_clones>
    2fec:	c6 05 f5 3a 01 00 01 	movb   $0x1,0x13af5(%rip)        # 16ae8 <completed.0>
    2ff3:	5d                   	pop    %rbp
    2ff4:	c3                   	ret    
    2ff5:	0f 1f 00             	nopl   (%rax)
    2ff8:	c3                   	ret    
    2ff9:	0f 1f 80 00 00 00 00 	nopl   0x0(%rax)

0000000000003000 <frame_dummy>:
    3000:	f3 0f 1e fa          	endbr64 
    3004:	e9 77 ff ff ff       	jmp    2f80 <register_tm_clones>
    3009:	0f 1f 80 00 00 00 00 	nopl   0x0(%rax)

0000000000003010 <d_sfh>:
    3010:	f3 0f 1e fa          	endbr64 
    3014:	89 f0                	mov    %esi,%eax
    3016:	41 89 f0             	mov    %esi,%r8d
    3019:	48 89 fa             	mov    %rdi,%rdx
    301c:	c1 f8 02             	sar    $0x2,%eax
    301f:	41 83 e0 03          	and    $0x3,%r8d
    3023:	85 c0                	test   %eax,%eax
    3025:	7e 35                	jle    305c <d_sfh+0x4c>
    3027:	48 8d 3c 87          	lea    (%rdi,%rax,4),%rdi
    302b:	0f 1f 44 00 00       	nopl   0x0(%rax,%rax,1)
    3030:	0f b6 42 01          	movzbl 0x1(%rdx),%eax
    3034:	0f b6 0a             	movzbl (%rdx),%ecx
    3037:	48 83 c2 04          	add    $0x4,%rdx
    303b:	c1 e0 08             	shl    $0x8,%eax
    303e:	01 c8                	add    %ecx,%eax
    3040:	0f b7 4a fe          	movzwl -0x2(%rdx),%ecx
    3044:	01 f0                	add    %esi,%eax
    3046:	c1 e1 0b             	shl    $0xb,%ecx
    3049:	31 c1                	xor    %eax,%ecx
    304b:	c1 e0 10             	shl    $0x10,%eax
    304e:	31 c8                	xor    %ecx,%eax
    3050:	89 c6                	mov    %eax,%esi
    3052:	c1 ee 0b             	shr    $0xb,%esi
    3055:	01 c6                	add    %eax,%esi
    3057:	48 39 fa             	cmp    %rdi,%rdx
    305a:	75 d4                	jne    3030 <d_sfh+0x20>
    305c:	41 83 f8 02          	cmp    $0x2,%r8d
    3060:	0f 84 8a 00 00 00    	je     30f0 <d_sfh+0xe0>
    3066:	41 83 f8 03          	cmp    $0x3,%r8d
    306a:	74 5c                	je     30c8 <d_sfh+0xb8>
    306c:	41 83 f8 01          	cmp    $0x1,%r8d
    3070:	74 3e                	je     30b0 <d_sfh+0xa0>
    3072:	8d 04 f5 00 00 00 00 	lea    0x0(,%rsi,8),%eax
    3079:	31 f0                	xor    %esi,%eax
    307b:	89 c2                	mov    %eax,%edx
    307d:	c1 ea 05             	shr    $0x5,%edx
    3080:	01 c2                	add    %eax,%edx
    3082:	89 d0                	mov    %edx,%eax
    3084:	c1 e0 04             	shl    $0x4,%eax
    3087:	31 d0                	xor    %edx,%eax
    3089:	89 c2                	mov    %eax,%edx
    308b:	c1 ea 11             	shr    $0x11,%edx
    308e:	01 c2                	add    %eax,%edx
    3090:	89 d0                	mov    %edx,%eax
    3092:	c1 e0 19             	shl    $0x19,%eax
    3095:	31 d0                	xor    %edx,%eax
    3097:	89 c2                	mov    %eax,%edx
    3099:	c1 ea 06             	shr    $0x6,%edx
    309c:	01 d0                	add    %edx,%eax
    309e:	48 89 05 db 70 01 00 	mov    %rax,0x170db(%rip)        # 1a180 <K1>
    30a5:	c3                   	ret    
    30a6:	66 2e 0f 1f 84 00 00 	cs nopw 0x0(%rax,%rax,1)
    30ad:	00 00 00 
    30b0:	0f b6 17             	movzbl (%rdi),%edx
    30b3:	01 f2                	add    %esi,%edx
    30b5:	89 d0                	mov    %edx,%eax
    30b7:	c1 e0 0a             	shl    $0xa,%eax
    30ba:	31 d0                	xor    %edx,%eax
    30bc:	89 c6                	mov    %eax,%esi
    30be:	d1 ee                	shr    %esi
    30c0:	01 c6                	add    %eax,%esi
    30c2:	eb ae                	jmp    3072 <d_sfh+0x62>
    30c4:	0f 1f 40 00          	nopl   0x0(%rax)
    30c8:	0f b6 17             	movzbl (%rdi),%edx
    30cb:	0f b6 47 01          	movzbl 0x1(%rdi),%eax
    30cf:	01 f2                	add    %esi,%edx
    30d1:	c1 e0 08             	shl    $0x8,%eax
    30d4:	01 d0                	add    %edx,%eax
    30d6:	0f b6 57 02          	movzbl 0x2(%rdi),%edx
    30da:	89 c1                	mov    %eax,%ecx
    30dc:	c1 e2 12             	shl    $0x12,%edx
    30df:	c1 e1 10             	shl    $0x10,%ecx
    30e2:	31 d0                	xor    %edx,%eax
    30e4:	31 c8                	xor    %ecx,%eax
    30e6:	89 c6                	mov    %eax,%esi
    30e8:	c1 ee 0b             	shr    $0xb,%esi
    30eb:	01 c6                	add    %eax,%esi
    30ed:	eb 83                	jmp    3072 <d_sfh+0x62>
    30ef:	90                   	nop
    30f0:	0f b6 17             	movzbl (%rdi),%edx
    30f3:	0f b6 47 01          	movzbl 0x1(%rdi),%eax
    30f7:	01 f2                	add    %esi,%edx
    30f9:	c1 e0 08             	shl    $0x8,%eax
    30fc:	01 d0                	add    %edx,%eax
    30fe:	89 c2                	mov    %eax,%edx
    3100:	c1 e2 0b             	shl    $0xb,%edx
    3103:	31 d0                	xor    %edx,%eax
    3105:	89 c6                	mov    %eax,%esi
    3107:	c1 ee 11             	shr    $0x11,%esi
    310a:	01 c6                	add    %eax,%esi
    310c:	e9 61 ff ff ff       	jmp    3072 <d_sfh+0x62>
    3111:	66 66 2e 0f 1f 84 00 	data16 cs nopw 0x0(%rax,%rax,1)
    3118:	00 00 00 00 
    311c:	0f 1f 40 00          	nopl   0x0(%rax)

0000000000003120 <d_hash>:
    3120:	f3 0f 1e fa          	endbr64 
    3124:	85 f6                	test   %esi,%esi
    3126:	44 8d 46 07          	lea    0x7(%rsi),%r8d
    312a:	89 f0                	mov    %esi,%eax
    312c:	44 0f 49 c6          	cmovns %esi,%r8d
    3130:	c1 f8 1f             	sar    $0x1f,%eax
    3133:	c1 e8 1d             	shr    $0x1d,%eax
    3136:	8d 14 06             	lea    (%rsi,%rax,1),%edx
    3139:	41 c1 f8 03          	sar    $0x3,%r8d
    313d:	48 63 f6             	movslq %esi,%rsi
    3140:	83 e2 07             	and    $0x7,%edx
    3143:	4d 63 c0             	movslq %r8d,%r8
    3146:	29 d0                	sub    %edx,%eax
    3148:	83 c0 08             	add    $0x8,%eax
    314b:	48 63 c8             	movslq %eax,%rcx
    314e:	48 8d 51 ff          	lea    -0x1(%rcx),%rdx
    3152:	48 83 fa 06          	cmp    $0x6,%rdx
    3156:	77 4d                	ja     31a5 <d_hash+0x85>
    3158:	49 83 c0 01          	add    $0x1,%r8
    315c:	48 8d 14 37          	lea    (%rdi,%rsi,1),%rdx
    3160:	83 f8 07             	cmp    $0x7,%eax
    3163:	77 3d                	ja     31a2 <d_hash+0x82>
    3165:	4c 8d 0d b4 ce 00 00 	lea    0xceb4(%rip),%r9        # 10020 <_IO_stdin_used+0x20>
    316c:	89 c0                	mov    %eax,%eax
    316e:	49 63 04 81          	movslq (%r9,%rax,4),%rax
    3172:	4c 01 c8             	add    %r9,%rax
    3175:	3e ff e0             	notrack jmp *%rax
    3178:	c6 02 00             	movb   $0x0,(%rdx)
    317b:	48 83 c2 01          	add    $0x1,%rdx
    317f:	c6 02 00             	movb   $0x0,(%rdx)
    3182:	48 83 c2 01          	add    $0x1,%rdx
    3186:	c6 02 00             	movb   $0x0,(%rdx)
    3189:	48 8d 42 01          	lea    0x1(%rdx),%rax
    318d:	c6 00 00             	movb   $0x0,(%rax)
    3190:	48 8d 50 01          	lea    0x1(%rax),%rdx
    3194:	c6 02 00             	movb   $0x0,(%rdx)
    3197:	48 8d 42 01          	lea    0x1(%rdx),%rax
    319b:	c6 00 00             	movb   $0x0,(%rax)
    319e:	48 8d 50 01          	lea    0x1(%rax),%rdx
    31a2:	c6 02 00             	movb   $0x0,(%rdx)
    31a5:	0f b6 15 7c 7a 01 00 	movzbl 0x17a7c(%rip),%edx        # 1ac28 <HASH_NR>
    31ac:	48 8d 05 cd 2f 01 00 	lea    0x12fcd(%rip),%rax        # 16180 <HASH_CONST>
    31b3:	8b 04 90             	mov    (%rax,%rdx,4),%eax
    31b6:	48 ba 13 7c 4a 7f b9 	movabs $0x9e3779b97f4a7c13,%rdx
    31bd:	79 37 9e 
    31c0:	49 83 f8 02          	cmp    $0x2,%r8
    31c4:	0f 86 ff 00 00 00    	jbe    32c9 <d_hash+0x1a9>
    31ca:	66 0f 1f 44 00 00    	nopw   0x0(%rax,%rax,1)
    31d0:	48 03 57 10          	add    0x10(%rdi),%rdx
    31d4:	48 03 47 08          	add    0x8(%rdi),%rax
    31d8:	4c 8d 14 10          	lea    (%rax,%rdx,1),%r10
    31dc:	48 03 0f             	add    (%rdi),%rcx
    31df:	48 29 d0             	sub    %rdx,%rax
    31e2:	4c 29 d1             	sub    %r10,%rcx
    31e5:	49 89 c9             	mov    %rcx,%r9
    31e8:	48 89 d1             	mov    %rdx,%rcx
    31eb:	48 c1 e9 2b          	shr    $0x2b,%rcx
    31ef:	4c 31 c9             	xor    %r9,%rcx
    31f2:	49 89 c9             	mov    %rcx,%r9
    31f5:	48 29 c8             	sub    %rcx,%rax
    31f8:	48 29 ca             	sub    %rcx,%rdx
    31fb:	49 c1 e1 09          	shl    $0x9,%r9
    31ff:	49 31 c1             	xor    %rax,%r9
    3202:	4c 89 c8             	mov    %r9,%rax
    3205:	4c 29 ca             	sub    %r9,%rdx
    3208:	4c 29 c9             	sub    %r9,%rcx
    320b:	48 c1 e8 08          	shr    $0x8,%rax
    320f:	48 31 c2             	xor    %rax,%rdx
    3212:	48 89 c8             	mov    %rcx,%rax
    3215:	48 89 d1             	mov    %rdx,%rcx
    3218:	48 29 d0             	sub    %rdx,%rax
    321b:	49 29 d1             	sub    %rdx,%r9
    321e:	48 c1 e9 26          	shr    $0x26,%rcx
    3222:	48 31 c1             	xor    %rax,%rcx
    3225:	48 89 c8             	mov    %rcx,%rax
    3228:	49 29 c9             	sub    %rcx,%r9
    322b:	48 29 ca             	sub    %rcx,%rdx
    322e:	48 c1 e0 17          	shl    $0x17,%rax
    3232:	4c 31 c8             	xor    %r9,%rax
    3235:	48 29 c2             	sub    %rax,%rdx
    3238:	48 29 c1             	sub    %rax,%rcx
    323b:	49 89 d1             	mov    %rdx,%r9
    323e:	48 89 c2             	mov    %rax,%rdx
    3241:	48 c1 ea 05          	shr    $0x5,%rdx
    3245:	4c 31 ca             	xor    %r9,%rdx
    3248:	48 29 d1             	sub    %rdx,%rcx
    324b:	48 29 d0             	sub    %rdx,%rax
    324e:	49 89 c9             	mov    %rcx,%r9
    3251:	48 89 d1             	mov    %rdx,%rcx
    3254:	48 c1 e9 23          	shr    $0x23,%rcx
    3258:	4c 31 c9             	xor    %r9,%rcx
    325b:	48 29 c8             	sub    %rcx,%rax
    325e:	49 89 c1             	mov    %rax,%r9
    3261:	48 89 c8             	mov    %rcx,%rax
    3264:	48 c1 e0 31          	shl    $0x31,%rax
    3268:	48 29 ca             	sub    %rcx,%rdx
    326b:	49 83 e8 03          	sub    $0x3,%r8
    326f:	48 83 c7 18          	add    $0x18,%rdi
    3273:	4c 31 c8             	xor    %r9,%rax
    3276:	48 29 c2             	sub    %rax,%rdx
    3279:	48 29 c1             	sub    %rax,%rcx
    327c:	49 89 d1             	mov    %rdx,%r9
    327f:	48 89 c2             	mov    %rax,%rdx
    3282:	48 c1 ea 0b          	shr    $0xb,%rdx
    3286:	4c 31 ca             	xor    %r9,%rdx
    3289:	48 29 d1             	sub    %rdx,%rcx
    328c:	48 29 d0             	sub    %rdx,%rax
    328f:	49 89 c9             	mov    %rcx,%r9
    3292:	48 89 d1             	mov    %rdx,%rcx
    3295:	48 c1 e9 0c          	shr    $0xc,%rcx
    3299:	4c 31 c9             	xor    %r9,%rcx
    329c:	48 29 c8             	sub    %rcx,%rax
    329f:	48 29 ca             	sub    %rcx,%rdx
    32a2:	49 89 c1             	mov    %rax,%r9
    32a5:	48 89 c8             	mov    %rcx,%rax
    32a8:	48 c1 e0 12          	shl    $0x12,%rax
    32ac:	4c 31 c8             	xor    %r9,%rax
    32af:	48 29 c2             	sub    %rax,%rdx
    32b2:	49 89 d1             	mov    %rdx,%r9
    32b5:	48 89 c2             	mov    %rax,%rdx
    32b8:	48 c1 ea 16          	shr    $0x16,%rdx
    32bc:	4c 31 ca             	xor    %r9,%rdx
    32bf:	49 83 f8 02          	cmp    $0x2,%r8
    32c3:	0f 87 07 ff ff ff    	ja     31d0 <d_hash+0xb0>
    32c9:	48 8d 34 f2          	lea    (%rdx,%rsi,8),%rsi
    32cd:	49 83 f8 01          	cmp    $0x1,%r8
    32d1:	0f 84 15 01 00 00    	je     33ec <d_hash+0x2cc>
    32d7:	49 83 f8 02          	cmp    $0x2,%r8
    32db:	0f 84 07 01 00 00    	je     33e8 <d_hash+0x2c8>
    32e1:	48 29 f1             	sub    %rsi,%rcx
    32e4:	48 89 f2             	mov    %rsi,%rdx
    32e7:	48 29 c1             	sub    %rax,%rcx
    32ea:	48 c1 ea 2b          	shr    $0x2b,%rdx
    32ee:	48 29 f0             	sub    %rsi,%rax
    32f1:	48 31 d1             	xor    %rdx,%rcx
    32f4:	48 89 ca             	mov    %rcx,%rdx
    32f7:	48 29 c8             	sub    %rcx,%rax
    32fa:	48 29 ce             	sub    %rcx,%rsi
    32fd:	48 c1 e2 09          	shl    $0x9,%rdx
    3301:	48 31 c2             	xor    %rax,%rdx
    3304:	48 89 d0             	mov    %rdx,%rax
    3307:	48 29 d6             	sub    %rdx,%rsi
    330a:	48 29 d1             	sub    %rdx,%rcx
    330d:	48 c1 e8 08          	shr    $0x8,%rax
    3311:	48 31 f0             	xor    %rsi,%rax
    3314:	48 89 ce             	mov    %rcx,%rsi
    3317:	48 89 c1             	mov    %rax,%rcx
    331a:	48 29 c6             	sub    %rax,%rsi
    331d:	48 29 c2             	sub    %rax,%rdx
    3320:	48 c1 e9 26          	shr    $0x26,%rcx
    3324:	48 31 f1             	xor    %rsi,%rcx
    3327:	48 89 d6             	mov    %rdx,%rsi
    332a:	48 89 ca             	mov    %rcx,%rdx
    332d:	48 29 ce             	sub    %rcx,%rsi
    3330:	48 29 c8             	sub    %rcx,%rax
    3333:	48 c1 e2 17          	shl    $0x17,%rdx
    3337:	48 31 f2             	xor    %rsi,%rdx
    333a:	48 29 d0             	sub    %rdx,%rax
    333d:	48 29 d1             	sub    %rdx,%rcx
    3340:	48 89 c6             	mov    %rax,%rsi
    3343:	48 89 d0             	mov    %rdx,%rax
    3346:	48 c1 e8 05          	shr    $0x5,%rax
    334a:	48 31 f0             	xor    %rsi,%rax
    334d:	48 89 ce             	mov    %rcx,%rsi
    3350:	48 89 c1             	mov    %rax,%rcx
    3353:	48 29 c6             	sub    %rax,%rsi
    3356:	48 29 c2             	sub    %rax,%rdx
    3359:	48 c1 e9 23          	shr    $0x23,%rcx
    335d:	48 31 f1             	xor    %rsi,%rcx
    3360:	48 89 d6             	mov    %rdx,%rsi
    3363:	48 89 ca             	mov    %rcx,%rdx
    3366:	48 29 ce             	sub    %rcx,%rsi
    3369:	48 c1 e2 31          	shl    $0x31,%rdx
    336d:	48 31 f2             	xor    %rsi,%rdx
    3370:	48 29 c8             	sub    %rcx,%rax
    3373:	48 29 d0             	sub    %rdx,%rax
    3376:	48 29 d1             	sub    %rdx,%rcx
    3379:	48 89 c6             	mov    %rax,%rsi
    337c:	48 89 d0             	mov    %rdx,%rax
    337f:	48 c1 e8 0b          	shr    $0xb,%rax
    3383:	48 31 f0             	xor    %rsi,%rax
    3386:	48 89 c6             	mov    %rax,%rsi
    3389:	48 29 c1             	sub    %rax,%rcx
    338c:	48 29 c2             	sub    %rax,%rdx
    338f:	48 c1 ee 0c          	shr    $0xc,%rsi
    3393:	48 31 ce             	xor    %rcx,%rsi
    3396:	48 89 f1             	mov    %rsi,%rcx
    3399:	48 29 f2             	sub    %rsi,%rdx
    339c:	48 29 f0             	sub    %rsi,%rax
    339f:	48 c1 e1 12          	shl    $0x12,%rcx
    33a3:	48 31 ca             	xor    %rcx,%rdx
    33a6:	48 89 d1             	mov    %rdx,%rcx
    33a9:	48 29 d0             	sub    %rdx,%rax
    33ac:	48 89 15 c5 6d 01 00 	mov    %rdx,0x16dc5(%rip)        # 1a178 <K2>
    33b3:	48 c1 e9 16          	shr    $0x16,%rcx
    33b7:	48 31 c8             	xor    %rcx,%rax
    33ba:	48 8b 0d 37 76 01 00 	mov    0x17637(%rip),%rcx        # 1a9f8 <nmask>
    33c1:	48 89 05 b8 6d 01 00 	mov    %rax,0x16db8(%rip)        # 1a180 <K1>
    33c8:	48 21 c1             	and    %rax,%rcx
    33cb:	48 89 0d 7e a3 01 00 	mov    %rcx,0x1a37e(%rip)        # 1d750 <j1_spin>
    33d2:	48 8b 0d 1f 76 01 00 	mov    0x1761f(%rip),%rcx        # 1a9f8 <nmask>
    33d9:	48 21 d1             	and    %rdx,%rcx
    33dc:	48 89 0d 65 a3 01 00 	mov    %rcx,0x1a365(%rip)        # 1d748 <j2_spin>
    33e3:	c3                   	ret    
    33e4:	0f 1f 40 00          	nopl   0x0(%rax)
    33e8:	48 03 47 08          	add    0x8(%rdi),%rax
    33ec:	48 03 0f             	add    (%rdi),%rcx
    33ef:	e9 ed fe ff ff       	jmp    32e1 <d_hash+0x1c1>
    33f4:	48 89 d0             	mov    %rdx,%rax
    33f7:	e9 91 fd ff ff       	jmp    318d <d_hash+0x6d>
    33fc:	48 89 d0             	mov    %rdx,%rax
    33ff:	e9 97 fd ff ff       	jmp    319b <d_hash+0x7b>
    3404:	66 66 2e 0f 1f 84 00 	data16 cs nopw 0x0(%rax,%rax,1)
    340b:	00 00 00 00 
    340f:	90                   	nop

0000000000003410 <spin_assert.part.0>:
    3410:	53                   	push   %rbx
    3411:	48 89 fb             	mov    %rdi,%rbx
    3414:	48 81 ec 10 04 00 00 	sub    $0x410,%rsp
    341b:	66 0f 6f 05 ad f5 00 	movdqa 0xf5ad(%rip),%xmm0        # 129d0 <CSWTCH.1491+0x2678>
    3422:	00 
    3423:	64 48 8b 04 25 28 00 	mov    %fs:0x28,%rax
    342a:	00 00 
    342c:	48 89 84 24 08 04 00 	mov    %rax,0x408(%rsp)
    3433:	00 
    3434:	31 c0                	xor    %eax,%eax
    3436:	c7 44 24 10 65 64 20 	movl   $0x206465,0x10(%rsp)
    343d:	00 
    343e:	0f 29 04 24          	movaps %xmm0,(%rsp)
    3442:	e8 49 ef ff ff       	call   2390 <_init+0x390>
    3447:	48 3d e8 03 00 00    	cmp    $0x3e8,%rax
    344d:	76 49                	jbe    3498 <spin_assert.part.0+0x88>
    344f:	48 8d 7c 24 13       	lea    0x13(%rsp),%rdi
    3454:	ba e8 03 00 00       	mov    $0x3e8,%edx
    3459:	48 89 de             	mov    %rbx,%rsi
    345c:	e8 bf ee ff ff       	call   2320 <_init+0x320>
    3461:	c6 84 24 fb 03 00 00 	movb   $0x0,0x3fb(%rsp)
    3468:	00 
    3469:	48 89 e7             	mov    %rsp,%rdi
    346c:	ff 15 ee 6c 01 00    	call   *0x16cee(%rip)        # 1a160 <uerror>
    3472:	48 8b 84 24 08 04 00 	mov    0x408(%rsp),%rax
    3479:	00 
    347a:	64 48 2b 04 25 28 00 	sub    %fs:0x28,%rax
    3481:	00 00 
    3483:	0f 85 94 00 00 00    	jne    351d <spin_assert.part.0+0x10d>
    3489:	48 81 c4 10 04 00 00 	add    $0x410,%rsp
    3490:	5b                   	pop    %rbx
    3491:	c3                   	ret    
    3492:	66 0f 1f 44 00 00    	nopw   0x0(%rax,%rax,1)
    3498:	48 83 c0 01          	add    $0x1,%rax
    349c:	48 8d 54 24 13       	lea    0x13(%rsp),%rdx
    34a1:	83 f8 08             	cmp    $0x8,%eax
    34a4:	73 2a                	jae    34d0 <spin_assert.part.0+0xc0>
    34a6:	a8 04                	test   $0x4,%al
    34a8:	75 5e                	jne    3508 <spin_assert.part.0+0xf8>
    34aa:	85 c0                	test   %eax,%eax
    34ac:	74 bb                	je     3469 <spin_assert.part.0+0x59>
    34ae:	0f b6 0b             	movzbl (%rbx),%ecx
    34b1:	88 4c 24 13          	mov    %cl,0x13(%rsp)
    34b5:	a8 02                	test   $0x2,%al
    34b7:	74 b0                	je     3469 <spin_assert.part.0+0x59>
    34b9:	89 c0                	mov    %eax,%eax
    34bb:	0f b7 4c 03 fe       	movzwl -0x2(%rbx,%rax,1),%ecx
    34c0:	66 89 4c 02 fe       	mov    %cx,-0x2(%rdx,%rax,1)
    34c5:	eb a2                	jmp    3469 <spin_assert.part.0+0x59>
    34c7:	66 0f 1f 84 00 00 00 	nopw   0x0(%rax,%rax,1)
    34ce:	00 00 
    34d0:	48 8b 0b             	mov    (%rbx),%rcx
    34d3:	48 8d 7c 24 18       	lea    0x18(%rsp),%rdi
    34d8:	48 89 4c 24 13       	mov    %rcx,0x13(%rsp)
    34dd:	89 c1                	mov    %eax,%ecx
    34df:	48 8b 74 0b f8       	mov    -0x8(%rbx,%rcx,1),%rsi
    34e4:	48 89 74 0a f8       	mov    %rsi,-0x8(%rdx,%rcx,1)
    34e9:	48 29 fa             	sub    %rdi,%rdx
    34ec:	48 89 de             	mov    %rbx,%rsi
    34ef:	01 d0                	add    %edx,%eax
    34f1:	48 29 d6             	sub    %rdx,%rsi
    34f4:	c1 e8 03             	shr    $0x3,%eax
    34f7:	89 c1                	mov    %eax,%ecx
    34f9:	f3 48 a5             	rep movsq %ds:(%rsi),%es:(%rdi)
    34fc:	e9 68 ff ff ff       	jmp    3469 <spin_assert.part.0+0x59>
    3501:	0f 1f 80 00 00 00 00 	nopl   0x0(%rax)
    3508:	8b 0b                	mov    (%rbx),%ecx
    350a:	89 c0                	mov    %eax,%eax
    350c:	89 4c 24 13          	mov    %ecx,0x13(%rsp)
    3510:	8b 4c 03 fc          	mov    -0x4(%rbx,%rax,1),%ecx
    3514:	89 4c 02 fc          	mov    %ecx,-0x4(%rdx,%rax,1)
    3518:	e9 4c ff ff ff       	jmp    3469 <spin_assert.part.0+0x59>
    351d:	e8 7e ee ff ff       	call   23a0 <_init+0x3a0>
    3522:	66 66 2e 0f 1f 84 00 	data16 cs nopw 0x0(%rax,%rax,1)
    3529:	00 00 00 00 
    352d:	0f 1f 00             	nopl   (%rax)

0000000000003530 <crack.part.0>:
    3530:	41 55                	push   %r13
    3532:	49 89 cd             	mov    %rcx,%r13
    3535:	31 c0                	xor    %eax,%eax
    3537:	41 54                	push   %r12
    3539:	41 89 fc             	mov    %edi,%r12d
    353c:	bf 02 00 00 00       	mov    $0x2,%edi
    3541:	55                   	push   %rbp
    3542:	48 89 d5             	mov    %rdx,%rbp
    3545:	53                   	push   %rbx
    3546:	89 f3                	mov    %esi,%ebx
    3548:	48 83 ec 08          	sub    $0x8,%rsp
    354c:	8b 4a 28             	mov    0x28(%rdx),%ecx
    354f:	44 8b 42 20          	mov    0x20(%rdx),%r8d
    3553:	89 f2                	mov    %esi,%edx
    3555:	48 8d 35 e4 dd 00 00 	lea    0xdde4(%rip),%rsi        # 11340 <CSWTCH.1491+0xfe8>
    355c:	e8 4f ef ff ff       	call   24b0 <_init+0x4b0>
    3561:	8b 55 24             	mov    0x24(%rbp),%edx
    3564:	0f bf 4d 02          	movswl 0x2(%rbp),%ecx
    3568:	31 c0                	xor    %eax,%eax
    356a:	48 8d 35 fd cd 00 00 	lea    0xcdfd(%rip),%rsi        # 1036e <CSWTCH.1491+0x16>
    3571:	bf 02 00 00 00       	mov    $0x2,%edi
    3576:	e8 35 ef ff ff       	call   24b0 <_init+0x4b0>
    357b:	0f bf 55 04          	movswl 0x4(%rbp),%edx
    357f:	66 85 d2             	test   %dx,%dx
    3582:	0f 85 58 01 00 00    	jne    36e0 <crack.part.0+0x1b0>
    3588:	bf 5d 00 00 00       	mov    $0x5d,%edi
    358d:	e8 6e ed ff ff       	call   2300 <_init+0x300>
    3592:	44 0f b7 55 00       	movzwl 0x0(%rbp),%r10d
    3597:	48 63 c3             	movslq %ebx,%rax
    359a:	48 8d 15 c3 cd 00 00 	lea    0xcdc3(%rip),%rdx        # 10364 <CSWTCH.1491+0xc>
    35a1:	48 8d 3d be cd 00 00 	lea    0xcdbe(%rip),%rdi        # 10366 <CSWTCH.1491+0xe>
    35a8:	48 8d 0d 21 5f 01 00 	lea    0x15f21(%rip),%rcx        # 194d0 <progstate>
    35af:	45 0f bf 5c 45 00    	movswl 0x0(%r13,%rax,2),%r11d
    35b5:	41 f6 c2 08          	test   $0x8,%r10b
    35b9:	48 8d 35 a7 ce 00 00 	lea    0xcea7(%rip),%rsi        # 10467 <CSWTCH.1491+0x10f>
    35c0:	4c 8d 0d 82 d8 00 00 	lea    0xd882(%rip),%r9        # 10e49 <CSWTCH.1491+0xaf1>
    35c7:	48 0f 45 fa          	cmovne %rdx,%rdi
    35cb:	49 63 d4             	movslq %r12d,%rdx
    35ce:	4c 8d 05 43 ce 00 00 	lea    0xce43(%rip),%r8        # 10418 <CSWTCH.1491+0xc0>
    35d5:	48 8b 0c d1          	mov    (%rcx,%rdx,8),%rcx
    35d9:	80 3c 01 00          	cmpb   $0x0,(%rcx,%rax,1)
    35dd:	48 8d 0d 8c 5e 01 00 	lea    0x15e8c(%rip),%rcx        # 19470 <stopstate>
    35e4:	48 8b 0c d1          	mov    (%rcx,%rdx,8),%rcx
    35e8:	4c 0f 44 ce          	cmove  %rsi,%r9
    35ec:	80 3c 01 00          	cmpb   $0x0,(%rcx,%rax,1)
    35f0:	48 8d 0d f9 5e 01 00 	lea    0x15ef9(%rip),%rcx        # 194f0 <accpstate>
    35f7:	48 8b 14 d1          	mov    (%rcx,%rdx,8),%rdx
    35fb:	4c 0f 44 c6          	cmove  %rsi,%r8
    35ff:	48 8d 0d 62 cd 00 00 	lea    0xcd62(%rip),%rcx        # 10368 <CSWTCH.1491+0x10>
    3606:	80 3c 02 00          	cmpb   $0x0,(%rdx,%rax,1)
    360a:	48 8d 15 59 cd 00 00 	lea    0xcd59(%rip),%rdx        # 1036a <CSWTCH.1491+0x12>
    3611:	48 0f 44 ce          	cmove  %rsi,%rcx
    3615:	41 f6 c2 06          	test   $0x6,%r10b
    3619:	75 0f                	jne    362a <crack.part.0+0xfa>
    361b:	41 83 e2 20          	and    $0x20,%r10d
    361f:	48 8d 15 46 cd 00 00 	lea    0xcd46(%rip),%rdx        # 1036c <CSWTCH.1491+0x14>
    3626:	48 0f 44 d6          	cmove  %rsi,%rdx
    362a:	48 83 ec 08          	sub    $0x8,%rsp
    362e:	48 8d 05 64 cd 00 00 	lea    0xcd64(%rip),%rax        # 10399 <CSWTCH.1491+0x41>
    3635:	41 53                	push   %r11
    3637:	48 8d 35 43 cd 00 00 	lea    0xcd43(%rip),%rsi        # 10381 <CSWTCH.1491+0x29>
    363e:	50                   	push   %rax
    363f:	31 c0                	xor    %eax,%eax
    3641:	57                   	push   %rdi
    3642:	bf 02 00 00 00       	mov    $0x2,%edi
    3647:	e8 64 ee ff ff       	call   24b0 <_init+0x4b0>
    364c:	48 8b 45 18          	mov    0x18(%rbp),%rax
    3650:	48 83 c4 20          	add    $0x20,%rsp
    3654:	0f be 38             	movsbl (%rax),%edi
    3657:	40 84 ff             	test   %dil,%dil
    365a:	74 4c                	je     36a8 <crack.part.0+0x178>
    365c:	bb 01 00 00 00       	mov    $0x1,%ebx
    3661:	4c 8d 25 40 cd 00 00 	lea    0xcd40(%rip),%r12        # 103a8 <CSWTCH.1491+0x50>
    3668:	eb 23                	jmp    368d <crack.part.0+0x15d>
    366a:	66 0f 1f 44 00 00    	nopw   0x0(%rax,%rax,1)
    3670:	48 8b 35 49 34 01 00 	mov    0x13449(%rip),%rsi        # 16ac0 <stdout@GLIBC_2.2.5>
    3677:	e8 a4 ed ff ff       	call   2420 <_init+0x420>
    367c:	48 8b 45 18          	mov    0x18(%rbp),%rax
    3680:	0f be 3c 18          	movsbl (%rax,%rbx,1),%edi
    3684:	48 83 c3 01          	add    $0x1,%rbx
    3688:	40 84 ff             	test   %dil,%dil
    368b:	74 1b                	je     36a8 <crack.part.0+0x178>
    368d:	40 80 ff 0a          	cmp    $0xa,%dil
    3691:	75 dd                	jne    3670 <crack.part.0+0x140>
    3693:	4c 89 e6             	mov    %r12,%rsi
    3696:	bf 02 00 00 00       	mov    $0x2,%edi
    369b:	31 c0                	xor    %eax,%eax
    369d:	e8 0e ee ff ff       	call   24b0 <_init+0x4b0>
    36a2:	eb d8                	jmp    367c <crack.part.0+0x14c>
    36a4:	0f 1f 40 00          	nopl   0x0(%rax)
    36a8:	8b 05 aa 74 01 00    	mov    0x174aa(%rip),%eax        # 1ab58 <verbose>
    36ae:	85 c0                	test   %eax,%eax
    36b0:	74 07                	je     36b9 <crack.part.0+0x189>
    36b2:	66 83 7d 06 00       	cmpw   $0x0,0x6(%rbp)
    36b7:	75 47                	jne    3700 <crack.part.0+0x1d0>
    36b9:	bf 0a 00 00 00       	mov    $0xa,%edi
    36be:	e8 3d ec ff ff       	call   2300 <_init+0x300>
    36c3:	48 8b 3d f6 33 01 00 	mov    0x133f6(%rip),%rdi        # 16ac0 <stdout@GLIBC_2.2.5>
    36ca:	48 83 c4 08          	add    $0x8,%rsp
    36ce:	5b                   	pop    %rbx
    36cf:	5d                   	pop    %rbp
    36d0:	41 5c                	pop    %r12
    36d2:	41 5d                	pop    %r13
    36d4:	e9 b7 ed ff ff       	jmp    2490 <_init+0x490>
    36d9:	0f 1f 80 00 00 00 00 	nopl   0x0(%rax)
    36e0:	48 8d 35 96 cc 00 00 	lea    0xcc96(%rip),%rsi        # 1037d <CSWTCH.1491+0x25>
    36e7:	bf 02 00 00 00       	mov    $0x2,%edi
    36ec:	31 c0                	xor    %eax,%eax
    36ee:	e8 bd ed ff ff       	call   24b0 <_init+0x4b0>
    36f3:	e9 90 fe ff ff       	jmp    3588 <crack.part.0+0x58>
    36f8:	0f 1f 84 00 00 00 00 	nopl   0x0(%rax,%rax,1)
    36ff:	00 
    3700:	48 8d 35 a4 cc 00 00 	lea    0xcca4(%rip),%rsi        # 103ab <CSWTCH.1491+0x53>
    3707:	bf 02 00 00 00       	mov    $0x2,%edi
    370c:	31 c0                	xor    %eax,%eax
    370e:	31 db                	xor    %ebx,%ebx
    3710:	e8 9b ed ff ff       	call   24b0 <_init+0x4b0>
    3715:	4c 8d 25 92 cc 00 00 	lea    0xcc92(%rip),%r12        # 103ae <CSWTCH.1491+0x56>
    371c:	eb 0c                	jmp    372a <crack.part.0+0x1fa>
    371e:	66 90                	xchg   %ax,%ax
    3720:	48 83 c3 01          	add    $0x1,%rbx
    3724:	48 83 fb 06          	cmp    $0x6,%rbx
    3728:	74 28                	je     3752 <crack.part.0+0x222>
    372a:	0f bf 54 5d 06       	movswl 0x6(%rbp,%rbx,2),%edx
    372f:	66 85 d2             	test   %dx,%dx
    3732:	74 ec                	je     3720 <crack.part.0+0x1f0>
    3734:	0f b6 4c 1d 12       	movzbl 0x12(%rbp,%rbx,1),%ecx
    3739:	4c 89 e6             	mov    %r12,%rsi
    373c:	bf 02 00 00 00       	mov    $0x2,%edi
    3741:	31 c0                	xor    %eax,%eax
    3743:	48 83 c3 01          	add    $0x1,%rbx
    3747:	e8 64 ed ff ff       	call   24b0 <_init+0x4b0>
    374c:	48 83 fb 06          	cmp    $0x6,%rbx
    3750:	75 d8                	jne    372a <crack.part.0+0x1fa>
    3752:	bf 5d 00 00 00       	mov    $0x5d,%edi
    3757:	e8 a4 eb ff ff       	call   2300 <_init+0x300>
    375c:	e9 58 ff ff ff       	jmp    36b9 <crack.part.0+0x189>
    3761:	66 66 2e 0f 1f 84 00 	data16 cs nopw 0x0(%rax,%rax,1)
    3768:	00 00 00 00 
    376c:	0f 1f 40 00          	nopl   0x0(%rax)

0000000000003770 <dot_crack.part.0>:
    3770:	41 55                	push   %r13
    3772:	31 c0                	xor    %eax,%eax
    3774:	41 89 f5             	mov    %esi,%r13d
    3777:	41 54                	push   %r12
    3779:	4c 63 e7             	movslq %edi,%r12
    377c:	bf 02 00 00 00       	mov    $0x2,%edi
    3781:	55                   	push   %rbp
    3782:	48 89 d5             	mov    %rdx,%rbp
    3785:	53                   	push   %rbx
    3786:	48 83 ec 08          	sub    $0x8,%rsp
    378a:	8b 4a 20             	mov    0x20(%rdx),%ecx
    378d:	89 f2                	mov    %esi,%edx
    378f:	48 8d 35 20 cc 00 00 	lea    0xcc20(%rip),%rsi        # 103b6 <CSWTCH.1491+0x5e>
    3796:	e8 15 ed ff ff       	call   24b0 <_init+0x4b0>
    379b:	0f b7 45 00          	movzwl 0x0(%rbp),%eax
    379f:	a8 06                	test   $0x6,%al
    37a1:	0f 85 01 01 00 00    	jne    38a8 <dot_crack.part.0+0x138>
    37a7:	a8 20                	test   $0x20,%al
    37a9:	0f 85 c9 00 00 00    	jne    3878 <dot_crack.part.0+0x108>
    37af:	a8 08                	test   $0x8,%al
    37b1:	0f 84 49 01 00 00    	je     3900 <dot_crack.part.0+0x190>
    37b7:	48 8d 35 2e cc 00 00 	lea    0xcc2e(%rip),%rsi        # 103ec <CSWTCH.1491+0x94>
    37be:	bf 02 00 00 00       	mov    $0x2,%edi
    37c3:	31 c0                	xor    %eax,%eax
    37c5:	e8 e6 ec ff ff       	call   24b0 <_init+0x4b0>
    37ca:	bf 02 00 00 00       	mov    $0x2,%edi
    37cf:	48 8d 35 2f cc 00 00 	lea    0xcc2f(%rip),%rsi        # 10405 <CSWTCH.1491+0xad>
    37d6:	31 c0                	xor    %eax,%eax
    37d8:	31 db                	xor    %ebx,%ebx
    37da:	e8 d1 ec ff ff       	call   24b0 <_init+0x4b0>
    37df:	48 8b 45 18          	mov    0x18(%rbp),%rax
    37e3:	31 d2                	xor    %edx,%edx
    37e5:	0f be 38             	movsbl (%rax),%edi
    37e8:	40 84 ff             	test   %dil,%dil
    37eb:	74 33                	je     3820 <dot_crack.part.0+0xb0>
    37ed:	0f 1f 00             	nopl   (%rax)
    37f0:	40 80 ff 5c          	cmp    $0x5c,%dil
    37f4:	75 0b                	jne    3801 <dot_crack.part.0+0x91>
    37f6:	80 7c 10 01 6e       	cmpb   $0x6e,0x1(%rax,%rdx,1)
    37fb:	0f 84 8f 00 00 00    	je     3890 <dot_crack.part.0+0x120>
    3801:	48 8b 35 b8 32 01 00 	mov    0x132b8(%rip),%rsi        # 16ac0 <stdout@GLIBC_2.2.5>
    3808:	e8 13 ec ff ff       	call   2420 <_init+0x420>
    380d:	48 8b 45 18          	mov    0x18(%rbp),%rax
    3811:	83 c3 01             	add    $0x1,%ebx
    3814:	48 63 d3             	movslq %ebx,%rdx
    3817:	0f be 3c 10          	movsbl (%rax,%rdx,1),%edi
    381b:	40 84 ff             	test   %dil,%dil
    381e:	75 d0                	jne    37f0 <dot_crack.part.0+0x80>
    3820:	48 8d 3d e7 cb 00 00 	lea    0xcbe7(%rip),%rdi        # 1040e <CSWTCH.1491+0xb6>
    3827:	49 63 dd             	movslq %r13d,%rbx
    382a:	e8 31 eb ff ff       	call   2360 <_init+0x360>
    382f:	48 8d 05 ba 5c 01 00 	lea    0x15cba(%rip),%rax        # 194f0 <accpstate>
    3836:	4a 8b 04 e0          	mov    (%rax,%r12,8),%rax
    383a:	80 3c 18 00          	cmpb   $0x0,(%rax,%rbx,1)
    383e:	0f 85 9c 00 00 00    	jne    38e0 <dot_crack.part.0+0x170>
    3844:	48 8d 05 85 5c 01 00 	lea    0x15c85(%rip),%rax        # 194d0 <progstate>
    384b:	4a 8b 04 e0          	mov    (%rax,%r12,8),%rax
    384f:	80 3c 18 00          	cmpb   $0x0,(%rax,%rbx,1)
    3853:	0f 85 c7 00 00 00    	jne    3920 <dot_crack.part.0+0x1b0>
    3859:	48 8d 05 10 5c 01 00 	lea    0x15c10(%rip),%rax        # 19470 <stopstate>
    3860:	4a 8b 04 e0          	mov    (%rax,%r12,8),%rax
    3864:	80 3c 18 00          	cmpb   $0x0,(%rax,%rbx,1)
    3868:	75 56                	jne    38c0 <dot_crack.part.0+0x150>
    386a:	48 83 c4 08          	add    $0x8,%rsp
    386e:	5b                   	pop    %rbx
    386f:	5d                   	pop    %rbp
    3870:	41 5c                	pop    %r12
    3872:	41 5d                	pop    %r13
    3874:	c3                   	ret    
    3875:	0f 1f 00             	nopl   (%rax)
    3878:	48 8d 35 5f cb 00 00 	lea    0xcb5f(%rip),%rsi        # 103de <CSWTCH.1491+0x86>
    387f:	bf 02 00 00 00       	mov    $0x2,%edi
    3884:	31 c0                	xor    %eax,%eax
    3886:	e8 25 ec ff ff       	call   24b0 <_init+0x4b0>
    388b:	e9 3a ff ff ff       	jmp    37ca <dot_crack.part.0+0x5a>
    3890:	bf 20 00 00 00       	mov    $0x20,%edi
    3895:	83 c3 01             	add    $0x1,%ebx
    3898:	e8 63 ea ff ff       	call   2300 <_init+0x300>
    389d:	e9 6b ff ff ff       	jmp    380d <dot_crack.part.0+0x9d>
    38a2:	66 0f 1f 44 00 00    	nopw   0x0(%rax,%rax,1)
    38a8:	48 8d 35 21 cb 00 00 	lea    0xcb21(%rip),%rsi        # 103d0 <CSWTCH.1491+0x78>
    38af:	bf 02 00 00 00       	mov    $0x2,%edi
    38b4:	31 c0                	xor    %eax,%eax
    38b6:	e8 f5 eb ff ff       	call   24b0 <_init+0x4b0>
    38bb:	e9 0a ff ff ff       	jmp    37ca <dot_crack.part.0+0x5a>
    38c0:	48 83 c4 08          	add    $0x8,%rsp
    38c4:	44 89 ea             	mov    %r13d,%edx
    38c7:	48 8d 35 e2 da 00 00 	lea    0xdae2(%rip),%rsi        # 113b0 <CSWTCH.1491+0x1058>
    38ce:	31 c0                	xor    %eax,%eax
    38d0:	5b                   	pop    %rbx
    38d1:	bf 02 00 00 00       	mov    $0x2,%edi
    38d6:	5d                   	pop    %rbp
    38d7:	41 5c                	pop    %r12
    38d9:	41 5d                	pop    %r13
    38db:	e9 d0 eb ff ff       	jmp    24b0 <_init+0x4b0>
    38e0:	44 89 ea             	mov    %r13d,%edx
    38e3:	48 8d 35 7e da 00 00 	lea    0xda7e(%rip),%rsi        # 11368 <CSWTCH.1491+0x1010>
    38ea:	bf 02 00 00 00       	mov    $0x2,%edi
    38ef:	31 c0                	xor    %eax,%eax
    38f1:	e8 ba eb ff ff       	call   24b0 <_init+0x4b0>
    38f6:	e9 5e ff ff ff       	jmp    3859 <dot_crack.part.0+0xe9>
    38fb:	0f 1f 44 00 00       	nopl   0x0(%rax,%rax,1)
    3900:	48 8d 35 f2 ca 00 00 	lea    0xcaf2(%rip),%rsi        # 103f9 <CSWTCH.1491+0xa1>
    3907:	bf 02 00 00 00       	mov    $0x2,%edi
    390c:	31 c0                	xor    %eax,%eax
    390e:	e8 9d eb ff ff       	call   24b0 <_init+0x4b0>
    3913:	e9 b2 fe ff ff       	jmp    37ca <dot_crack.part.0+0x5a>
    3918:	0f 1f 84 00 00 00 00 	nopl   0x0(%rax,%rax,1)
    391f:	00 
    3920:	44 89 ea             	mov    %r13d,%edx
    3923:	48 8d 35 5e da 00 00 	lea    0xda5e(%rip),%rsi        # 11388 <CSWTCH.1491+0x1030>
    392a:	bf 02 00 00 00       	mov    $0x2,%edi
    392f:	31 c0                	xor    %eax,%eax
    3931:	e8 7a eb ff ff       	call   24b0 <_init+0x4b0>
    3936:	e9 1e ff ff ff       	jmp    3859 <dot_crack.part.0+0xe9>
    393b:	0f 1f 44 00 00       	nopl   0x0(%rax,%rax,1)

0000000000003940 <reverse_capture.part.0>:
    3940:	53                   	push   %rbx
    3941:	48 89 fb             	mov    %rdi,%rbx
    3944:	48 8b 3f             	mov    (%rdi),%rdi
    3947:	48 85 ff             	test   %rdi,%rdi
    394a:	74 05                	je     3951 <reverse_capture.part.0+0x11>
    394c:	e8 ef ff ff ff       	call   3940 <reverse_capture.part.0>
    3951:	48 8b 43 10          	mov    0x10(%rbx),%rax
    3955:	83 3d fc 27 01 00 3f 	cmpl   $0x3f,0x127fc(%rip)        # 16158 <ssize>
    395c:	48 89 05 e5 9d 01 00 	mov    %rax,0x19de5(%rip)        # 1d748 <j2_spin>
    3963:	7f 0e                	jg     3973 <reverse_capture.part.0+0x33>
    3965:	48 23 05 94 70 01 00 	and    0x17094(%rip),%rax        # 1aa00 <mask>
    396c:	48 89 05 d5 9d 01 00 	mov    %rax,0x19dd5(%rip)        # 1d748 <j2_spin>
    3973:	48 8b 15 96 8d 01 00 	mov    0x18d96(%rip),%rdx        # 1c710 <N_tab>
    397a:	48 8d 04 c2          	lea    (%rdx,%rax,8),%rax
    397e:	48 8b 10             	mov    (%rax),%rdx
    3981:	48 89 13             	mov    %rdx,(%rbx)
    3984:	48 89 18             	mov    %rbx,(%rax)
    3987:	5b                   	pop    %rbx
    3988:	c3                   	ret    
    3989:	0f 1f 80 00 00 00 00 	nopl   0x0(%rax)

0000000000003990 <globinit>:
    3990:	f3 0f 1e fa          	endbr64 
    3994:	c3                   	ret    
    3995:	66 66 2e 0f 1f 84 00 	data16 cs nopw 0x0(%rax,%rax,1)
    399c:	00 00 00 00 

00000000000039a0 <locinit1>:
    39a0:	f3 0f 1e fa          	endbr64 
    39a4:	c3                   	ret    
    39a5:	66 66 2e 0f 1f 84 00 	data16 cs nopw 0x0(%rax,%rax,1)
    39ac:	00 00 00 00 

00000000000039b0 <locinit0>:
    39b0:	f3 0f 1e fa          	endbr64 
    39b4:	c3                   	ret    
    39b5:	66 66 2e 0f 1f 84 00 	data16 cs nopw 0x0(%rax,%rax,1)
    39bc:	00 00 00 00 

00000000000039c0 <spin_join>:
    39c0:	f3 0f 1e fa          	endbr64 
    39c4:	0f b6 05 f5 72 01 00 	movzbl 0x172f5(%rip),%eax        # 1acc0 <now>
    39cb:	39 f8                	cmp    %edi,%eax
    39cd:	0f 9e c0             	setle  %al
    39d0:	0f b6 c0             	movzbl %al,%eax
    39d3:	c3                   	ret    
    39d4:	66 66 2e 0f 1f 84 00 	data16 cs nopw 0x0(%rax,%rax,1)
    39db:	00 00 00 00 
    39df:	90                   	nop

00000000000039e0 <spin_mutex_free>:
    39e0:	f3 0f 1e fa          	endbr64 
    39e4:	8b 17                	mov    (%rdi),%edx
    39e6:	31 c0                	xor    %eax,%eax
    39e8:	85 d2                	test   %edx,%edx
    39ea:	0f 94 c0             	sete   %al
    39ed:	c3                   	ret    
    39ee:	66 90                	xchg   %ax,%ax

00000000000039f0 <spin_mutex_lock>:
    39f0:	f3 0f 1e fa          	endbr64 
    39f4:	c7 07 01 00 00 00    	movl   $0x1,(%rdi)
    39fa:	b8 01 00 00 00       	mov    $0x1,%eax
    39ff:	c3                   	ret    

0000000000003a00 <spin_mutex_destroy>:
    3a00:	f3 0f 1e fa          	endbr64 
    3a04:	c7 07 00 00 00 00    	movl   $0x0,(%rdi)
    3a0a:	c3                   	ret    
    3a0b:	0f 1f 44 00 00       	nopl   0x0(%rax,%rax,1)

0000000000003a10 <spin_mutex_unlock>:
    3a10:	f3 0f 1e fa          	endbr64 
    3a14:	c7 07 00 00 00 00    	movl   $0x0,(%rdi)
    3a1a:	c3                   	ret    
    3a1b:	0f 1f 44 00 00       	nopl   0x0(%rax,%rax,1)

0000000000003a20 <spin_mutex_init>:
    3a20:	f3 0f 1e fa          	endbr64 
    3a24:	48 85 f6             	test   %rsi,%rsi
    3a27:	74 17                	je     3a40 <spin_mutex_init+0x20>
    3a29:	48 8d 3d b0 d9 00 00 	lea    0xd9b0(%rip),%rdi        # 113e0 <CSWTCH.1491+0x1088>
    3a30:	ff 25 22 67 01 00    	jmp    *0x16722(%rip)        # 1a158 <Uerror>
    3a36:	66 2e 0f 1f 84 00 00 	cs nopw 0x0(%rax,%rax,1)
    3a3d:	00 00 00 
    3a40:	c7 07 00 00 00 00    	movl   $0x0,(%rdi)
    3a46:	c3                   	ret    
    3a47:	66 0f 1f 84 00 00 00 	nopw   0x0(%rax,%rax,1)
    3a4e:	00 00 

0000000000003a50 <spin_cond_wait>:
    3a50:	f3 0f 1e fa          	endbr64 
    3a54:	55                   	push   %rbp
    3a55:	48 89 f5             	mov    %rsi,%rbp
    3a58:	53                   	push   %rbx
    3a59:	48 89 fb             	mov    %rdi,%rbx
    3a5c:	48 83 ec 08          	sub    $0x8,%rsp
    3a60:	48 8b 05 e1 71 01 00 	mov    0x171e1(%rip),%rax        # 1ac48 <this>
    3a67:	0f b6 08             	movzbl (%rax),%ecx
    3a6a:	80 f9 3e             	cmp    $0x3e,%cl
    3a6d:	76 17                	jbe    3a86 <spin_cond_wait+0x36>
    3a6f:	48 8d 3d a2 d9 00 00 	lea    0xd9a2(%rip),%rdi        # 11418 <CSWTCH.1491+0x10c0>
    3a76:	ff 15 dc 66 01 00    	call   *0x166dc(%rip)        # 1a158 <Uerror>
    3a7c:	48 8b 05 c5 71 01 00 	mov    0x171c5(%rip),%rax        # 1ac48 <this>
    3a83:	0f b6 08             	movzbl (%rax),%ecx
    3a86:	8b 13                	mov    (%rbx),%edx
    3a88:	83 c1 01             	add    $0x1,%ecx
    3a8b:	b8 01 00 00 00       	mov    $0x1,%eax
    3a90:	d3 e0                	shl    %cl,%eax
    3a92:	89 d6                	mov    %edx,%esi
    3a94:	83 e6 01             	and    $0x1,%esi
    3a97:	74 3f                	je     3ad8 <spin_cond_wait+0x88>
    3a99:	89 c1                	mov    %eax,%ecx
    3a9b:	83 c9 01             	or     $0x1,%ecx
    3a9e:	f7 d1                	not    %ecx
    3aa0:	85 d1                	test   %edx,%ecx
    3aa2:	75 1c                	jne    3ac0 <spin_cond_wait+0x70>
    3aa4:	f7 d0                	not    %eax
    3aa6:	21 d0                	and    %edx,%eax
    3aa8:	83 e0 fe             	and    $0xfffffffe,%eax
    3aab:	89 03                	mov    %eax,(%rbx)
    3aad:	48 83 c4 08          	add    $0x8,%rsp
    3ab1:	89 f0                	mov    %esi,%eax
    3ab3:	5b                   	pop    %rbx
    3ab4:	5d                   	pop    %rbp
    3ab5:	c3                   	ret    
    3ab6:	66 2e 0f 1f 84 00 00 	cs nopw 0x0(%rax,%rax,1)
    3abd:	00 00 00 
    3ac0:	c7 45 00 00 00 00 00 	movl   $0x0,0x0(%rbp)
    3ac7:	31 f6                	xor    %esi,%esi
    3ac9:	48 83 c4 08          	add    $0x8,%rsp
    3acd:	89 f0                	mov    %esi,%eax
    3acf:	5b                   	pop    %rbx
    3ad0:	5d                   	pop    %rbp
    3ad1:	c3                   	ret    
    3ad2:	66 0f 1f 44 00 00    	nopw   0x0(%rax,%rax,1)
    3ad8:	c7 45 00 00 00 00 00 	movl   $0x0,0x0(%rbp)
    3adf:	31 f6                	xor    %esi,%esi
    3ae1:	09 03                	or     %eax,(%rbx)
    3ae3:	eb e4                	jmp    3ac9 <spin_cond_wait+0x79>
    3ae5:	66 66 2e 0f 1f 84 00 	data16 cs nopw 0x0(%rax,%rax,1)
    3aec:	00 00 00 00 

0000000000003af0 <spin_cond_signal>:
    3af0:	f3 0f 1e fa          	endbr64 
    3af4:	8b 07                	mov    (%rdi),%eax
    3af6:	83 f8 01             	cmp    $0x1,%eax
    3af9:	76 05                	jbe    3b00 <spin_cond_signal+0x10>
    3afb:	83 c8 01             	or     $0x1,%eax
    3afe:	89 07                	mov    %eax,(%rdi)
    3b00:	c3                   	ret    
    3b01:	66 66 2e 0f 1f 84 00 	data16 cs nopw 0x0(%rax,%rax,1)
    3b08:	00 00 00 00 
    3b0c:	0f 1f 40 00          	nopl   0x0(%rax)

0000000000003b10 <cpu_printf>:
    3b10:	f3 0f 1e fa          	endbr64 
    3b14:	48 81 ec d8 00 00 00 	sub    $0xd8,%rsp
    3b1b:	48 89 74 24 28       	mov    %rsi,0x28(%rsp)
    3b20:	48 89 54 24 30       	mov    %rdx,0x30(%rsp)
    3b25:	48 89 4c 24 38       	mov    %rcx,0x38(%rsp)
    3b2a:	4c 89 44 24 40       	mov    %r8,0x40(%rsp)
    3b2f:	4c 89 4c 24 48       	mov    %r9,0x48(%rsp)
    3b34:	84 c0                	test   %al,%al
    3b36:	74 37                	je     3b6f <cpu_printf+0x5f>
    3b38:	0f 29 44 24 50       	movaps %xmm0,0x50(%rsp)
    3b3d:	0f 29 4c 24 60       	movaps %xmm1,0x60(%rsp)
    3b42:	0f 29 54 24 70       	movaps %xmm2,0x70(%rsp)
    3b47:	0f 29 9c 24 80 00 00 	movaps %xmm3,0x80(%rsp)
    3b4e:	00 
    3b4f:	0f 29 a4 24 90 00 00 	movaps %xmm4,0x90(%rsp)
    3b56:	00 
    3b57:	0f 29 ac 24 a0 00 00 	movaps %xmm5,0xa0(%rsp)
    3b5e:	00 
    3b5f:	0f 29 b4 24 b0 00 00 	movaps %xmm6,0xb0(%rsp)
    3b66:	00 
    3b67:	0f 29 bc 24 c0 00 00 	movaps %xmm7,0xc0(%rsp)
    3b6e:	00 
    3b6f:	64 48 8b 04 25 28 00 	mov    %fs:0x28,%rax
    3b76:	00 00 
    3b78:	48 89 44 24 18       	mov    %rax,0x18(%rsp)
    3b7d:	31 c0                	xor    %eax,%eax
    3b7f:	48 89 fa             	mov    %rdi,%rdx
    3b82:	48 8d 84 24 e0 00 00 	lea    0xe0(%rsp),%rax
    3b89:	00 
    3b8a:	48 89 e1             	mov    %rsp,%rcx
    3b8d:	48 8b 3d 2c 2f 01 00 	mov    0x12f2c(%rip),%rdi        # 16ac0 <stdout@GLIBC_2.2.5>
    3b94:	48 89 44 24 08       	mov    %rax,0x8(%rsp)
    3b99:	be 02 00 00 00       	mov    $0x2,%esi
    3b9e:	48 8d 44 24 20       	lea    0x20(%rsp),%rax
    3ba3:	c7 04 24 08 00 00 00 	movl   $0x8,(%rsp)
    3baa:	c7 44 24 04 30 00 00 	movl   $0x30,0x4(%rsp)
    3bb1:	00 
    3bb2:	48 89 44 24 10       	mov    %rax,0x10(%rsp)
    3bb7:	e8 54 e7 ff ff       	call   2310 <_init+0x310>
    3bbc:	48 8b 44 24 18       	mov    0x18(%rsp),%rax
    3bc1:	64 48 2b 04 25 28 00 	sub    %fs:0x28,%rax
    3bc8:	00 00 
    3bca:	75 0d                	jne    3bd9 <cpu_printf+0xc9>
    3bcc:	b8 01 00 00 00       	mov    $0x1,%eax
    3bd1:	48 81 c4 d8 00 00 00 	add    $0xd8,%rsp
    3bd8:	c3                   	ret    
    3bd9:	e8 c2 e7 ff ff       	call   23a0 <_init+0x3a0>
    3bde:	66 90                	xchg   %ax,%ax

0000000000003be0 <Printf>:
    3be0:	f3 0f 1e fa          	endbr64 
    3be4:	48 81 ec d8 00 00 00 	sub    $0xd8,%rsp
    3beb:	48 89 74 24 28       	mov    %rsi,0x28(%rsp)
    3bf0:	48 89 54 24 30       	mov    %rdx,0x30(%rsp)
    3bf5:	48 89 4c 24 38       	mov    %rcx,0x38(%rsp)
    3bfa:	4c 89 44 24 40       	mov    %r8,0x40(%rsp)
    3bff:	4c 89 4c 24 48       	mov    %r9,0x48(%rsp)
    3c04:	84 c0                	test   %al,%al
    3c06:	74 37                	je     3c3f <Printf+0x5f>
    3c08:	0f 29 44 24 50       	movaps %xmm0,0x50(%rsp)
    3c0d:	0f 29 4c 24 60       	movaps %xmm1,0x60(%rsp)
    3c12:	0f 29 54 24 70       	movaps %xmm2,0x70(%rsp)
    3c17:	0f 29 9c 24 80 00 00 	movaps %xmm3,0x80(%rsp)
    3c1e:	00 
    3c1f:	0f 29 a4 24 90 00 00 	movaps %xmm4,0x90(%rsp)
    3c26:	00 
    3c27:	0f 29 ac 24 a0 00 00 	movaps %xmm5,0xa0(%rsp)
    3c2e:	00 
    3c2f:	0f 29 b4 24 b0 00 00 	movaps %xmm6,0xb0(%rsp)
    3c36:	00 
    3c37:	0f 29 bc 24 c0 00 00 	movaps %xmm7,0xc0(%rsp)
    3c3e:	00 
    3c3f:	64 48 8b 04 25 28 00 	mov    %fs:0x28,%rax
    3c46:	00 00 
    3c48:	48 89 44 24 18       	mov    %rax,0x18(%rsp)
    3c4d:	31 c0                	xor    %eax,%eax
    3c4f:	8b 05 f3 6e 01 00    	mov    0x16ef3(%rip),%eax        # 1ab48 <readtrail>
    3c55:	85 c0                	test   %eax,%eax
    3c57:	75 27                	jne    3c80 <Printf+0xa0>
    3c59:	48 8b 44 24 18       	mov    0x18(%rsp),%rax
    3c5e:	64 48 2b 04 25 28 00 	sub    %fs:0x28,%rax
    3c65:	00 00 
    3c67:	75 56                	jne    3cbf <Printf+0xdf>
    3c69:	b8 01 00 00 00       	mov    $0x1,%eax
    3c6e:	48 81 c4 d8 00 00 00 	add    $0xd8,%rsp
    3c75:	c3                   	ret    
    3c76:	66 2e 0f 1f 84 00 00 	cs nopw 0x0(%rax,%rax,1)
    3c7d:	00 00 00 
    3c80:	48 8d 84 24 e0 00 00 	lea    0xe0(%rsp),%rax
    3c87:	00 
    3c88:	48 89 fa             	mov    %rdi,%rdx
    3c8b:	48 89 e1             	mov    %rsp,%rcx
    3c8e:	be 02 00 00 00       	mov    $0x2,%esi
    3c93:	48 8b 3d 26 2e 01 00 	mov    0x12e26(%rip),%rdi        # 16ac0 <stdout@GLIBC_2.2.5>
    3c9a:	48 89 44 24 08       	mov    %rax,0x8(%rsp)
    3c9f:	48 8d 44 24 20       	lea    0x20(%rsp),%rax
    3ca4:	c7 04 24 08 00 00 00 	movl   $0x8,(%rsp)
    3cab:	c7 44 24 04 30 00 00 	movl   $0x30,0x4(%rsp)
    3cb2:	00 
    3cb3:	48 89 44 24 10       	mov    %rax,0x10(%rsp)
    3cb8:	e8 53 e6 ff ff       	call   2310 <_init+0x310>
    3cbd:	eb 9a                	jmp    3c59 <Printf+0x79>
    3cbf:	e8 dc e6 ff ff       	call   23a0 <_init+0x3a0>
    3cc4:	66 66 2e 0f 1f 84 00 	data16 cs nopw 0x0(%rax,%rax,1)
    3ccb:	00 00 00 00 
    3ccf:	90                   	nop

0000000000003cd0 <transmognify>:
    3cd0:	f3 0f 1e fa          	endbr64 
    3cd4:	41 57                	push   %r15
    3cd6:	41 56                	push   %r14
    3cd8:	41 55                	push   %r13
    3cda:	41 54                	push   %r12
    3cdc:	55                   	push   %rbp
    3cdd:	53                   	push   %rbx
    3cde:	48 83 ec 28          	sub    $0x28,%rsp
    3ce2:	48 89 7c 24 18       	mov    %rdi,0x18(%rsp)
    3ce7:	48 85 ff             	test   %rdi,%rdi
    3cea:	74 10                	je     3cfc <transmognify+0x2c>
    3cec:	48 89 fb             	mov    %rdi,%rbx
    3cef:	e8 9c e6 ff ff       	call   2390 <_init+0x390>
    3cf4:	48 3d ff 07 00 00    	cmp    $0x7ff,%rax
    3cfa:	76 14                	jbe    3d10 <transmognify+0x40>
    3cfc:	48 8b 44 24 18       	mov    0x18(%rsp),%rax
    3d01:	48 83 c4 28          	add    $0x28,%rsp
    3d05:	5b                   	pop    %rbx
    3d06:	5d                   	pop    %rbp
    3d07:	41 5c                	pop    %r12
    3d09:	41 5d                	pop    %r13
    3d0b:	41 5e                	pop    %r14
    3d0d:	41 5f                	pop    %r15
    3d0f:	c3                   	ret    
    3d10:	31 c0                	xor    %eax,%eax
    3d12:	b9 00 01 00 00       	mov    $0x100,%ecx
    3d17:	ba 00 10 00 00       	mov    $0x1000,%edx
    3d1c:	48 89 de             	mov    %rbx,%rsi
    3d1f:	48 8d 3d 1a 8a 01 00 	lea    0x18a1a(%rip),%rdi        # 1c740 <tbuf>
    3d26:	45 31 f6             	xor    %r14d,%r14d
    3d29:	f3 48 ab             	rep stos %rax,%es:(%rdi)
    3d2c:	b9 00 01 00 00       	mov    $0x100,%ecx
    3d31:	f3 48 ab             	rep stos %rax,%es:(%rdi)
    3d34:	48 8d 3d 05 8a 01 00 	lea    0x18a05(%rip),%rdi        # 1c740 <tbuf>
    3d3b:	e8 60 e7 ff ff       	call   24a0 <_init+0x4a0>
    3d40:	c7 44 24 0c 00 00 00 	movl   $0x0,0xc(%rsp)
    3d47:	00 
    3d48:	0f 1f 84 00 00 00 00 	nopl   0x0(%rax,%rax,1)
    3d4f:	00 
    3d50:	4c 89 f1             	mov    %r14,%rcx
    3d53:	48 8d 05 e6 89 01 00 	lea    0x189e6(%rip),%rax        # 1c740 <tbuf>
    3d5a:	48 8d 35 b1 c6 00 00 	lea    0xc6b1(%rip),%rsi        # 10412 <CSWTCH.1491+0xba>
    3d61:	48 c1 e1 0b          	shl    $0xb,%rcx
    3d65:	48 01 c1             	add    %rax,%rcx
    3d68:	48 89 cf             	mov    %rcx,%rdi
    3d6b:	48 89 4c 24 10       	mov    %rcx,0x10(%rsp)
    3d70:	e8 eb e7 ff ff       	call   2560 <_init+0x560>
    3d75:	48 8b 4c 24 10       	mov    0x10(%rsp),%rcx
    3d7a:	48 85 c0             	test   %rax,%rax
    3d7d:	49 89 c4             	mov    %rax,%r12
    3d80:	0f 84 e0 00 00 00    	je     3e66 <transmognify+0x196>
    3d86:	83 74 24 0c 01       	xorl   $0x1,0xc(%rsp)
    3d8b:	4c 63 74 24 0c       	movslq 0xc(%rsp),%r14
    3d90:	ba 00 10 00 00       	mov    $0x1000,%edx
    3d95:	48 89 ce             	mov    %rcx,%rsi
    3d98:	48 8d 05 a1 89 01 00 	lea    0x189a1(%rip),%rax        # 1c740 <tbuf>
    3d9f:	41 c6 04 24 00       	movb   $0x0,(%r12)
    3da4:	49 8d 5c 24 01       	lea    0x1(%r12),%rbx
    3da9:	4c 89 f5             	mov    %r14,%rbp
    3dac:	48 c1 e5 0b          	shl    $0xb,%rbp
    3db0:	48 29 ea             	sub    %rbp,%rdx
    3db3:	48 01 c5             	add    %rax,%rbp
    3db6:	48 89 ef             	mov    %rbp,%rdi
    3db9:	48 89 54 24 10       	mov    %rdx,0x10(%rsp)
    3dbe:	e8 dd e6 ff ff       	call   24a0 <_init+0x4a0>
    3dc3:	41 0f b6 44 24 01    	movzbl 0x1(%r12),%eax
    3dc9:	3c 7d                	cmp    $0x7d,%al
    3dcb:	75 0f                	jne    3ddc <transmognify+0x10c>
    3dcd:	eb 19                	jmp    3de8 <transmognify+0x118>
    3dcf:	90                   	nop
    3dd0:	0f b6 43 01          	movzbl 0x1(%rbx),%eax
    3dd4:	48 83 c3 01          	add    $0x1,%rbx
    3dd8:	3c 7d                	cmp    $0x7d,%al
    3dda:	74 0c                	je     3de8 <transmognify+0x118>
    3ddc:	84 c0                	test   %al,%al
    3dde:	75 f0                	jne    3dd0 <transmognify+0x100>
    3de0:	3c 7d                	cmp    $0x7d,%al
    3de2:	0f 85 14 ff ff ff    	jne    3cfc <transmognify+0x2c>
    3de8:	c6 03 00             	movb   $0x0,(%rbx)
    3deb:	48 83 c3 01          	add    $0x1,%rbx
    3def:	48 83 3d a9 2b 01 00 	cmpq   $0x0,0x12ba9(%rip)        # 169a0 <code_lookup>
    3df6:	00 
    3df7:	74 58                	je     3e51 <transmognify+0x181>
    3df9:	48 89 ef             	mov    %rbp,%rdi
    3dfc:	e8 8f e5 ff ff       	call   2390 <_init+0x390>
    3e01:	4c 8b 25 a0 2b 01 00 	mov    0x12ba0(%rip),%r12        # 169a8 <code_lookup+0x8>
    3e08:	49 89 c5             	mov    %rax,%r13
    3e0b:	4c 89 e7             	mov    %r12,%rdi
    3e0e:	e8 7d e5 ff ff       	call   2390 <_init+0x390>
    3e13:	48 89 df             	mov    %rbx,%rdi
    3e16:	49 89 c7             	mov    %rax,%r15
    3e19:	e8 72 e5 ff ff       	call   2390 <_init+0x390>
    3e1e:	48 89 c6             	mov    %rax,%rsi
    3e21:	4b 8d 44 3d 00       	lea    0x0(%r13,%r15,1),%rax
    3e26:	48 01 f0             	add    %rsi,%rax
    3e29:	48 3d ff 07 00 00    	cmp    $0x7ff,%rax
    3e2f:	0f 87 c7 fe ff ff    	ja     3cfc <transmognify+0x2c>
    3e35:	48 8b 44 24 10       	mov    0x10(%rsp),%rax
    3e3a:	49 8d 57 01          	lea    0x1(%r15),%rdx
    3e3e:	4a 8d 7c 2d 00       	lea    0x0(%rbp,%r13,1),%rdi
    3e43:	4c 89 e6             	mov    %r12,%rsi
    3e46:	4c 29 e8             	sub    %r13,%rax
    3e49:	48 89 c1             	mov    %rax,%rcx
    3e4c:	e8 ef e5 ff ff       	call   2440 <_init+0x440>
    3e51:	48 8b 54 24 10       	mov    0x10(%rsp),%rdx
    3e56:	48 89 de             	mov    %rbx,%rsi
    3e59:	48 89 ef             	mov    %rbp,%rdi
    3e5c:	e8 8f e4 ff ff       	call   22f0 <_init+0x2f0>
    3e61:	e9 ea fe ff ff       	jmp    3d50 <transmognify+0x80>
    3e66:	c6 81 ff 07 00 00 00 	movb   $0x0,0x7ff(%rcx)
    3e6d:	48 89 4c 24 18       	mov    %rcx,0x18(%rsp)
    3e72:	e9 85 fe ff ff       	jmp    3cfc <transmognify+0x2c>
    3e77:	66 0f 1f 84 00 00 00 	nopw   0x0(%rax,%rax,1)
    3e7e:	00 00 

0000000000003e80 <add_src_txt>:
    3e80:	f3 0f 1e fa          	endbr64 
    3e84:	41 55                	push   %r13
    3e86:	48 63 ff             	movslq %edi,%rdi
    3e89:	48 63 f6             	movslq %esi,%rsi
    3e8c:	41 54                	push   %r12
    3e8e:	55                   	push   %rbp
    3e8f:	53                   	push   %rbx
    3e90:	48 83 ec 08          	sub    $0x8,%rsp
    3e94:	48 8b 05 a5 62 01 00 	mov    0x162a5(%rip),%rax        # 1a140 <trans>
    3e9b:	48 8b 04 f8          	mov    (%rax,%rdi,8),%rax
    3e9f:	48 8b 2c f0          	mov    (%rax,%rsi,8),%rbp
    3ea3:	48 85 ed             	test   %rbp,%rbp
    3ea6:	0f 84 87 00 00 00    	je     3f33 <add_src_txt+0xb3>
    3eac:	4c 8d 2d 67 c5 00 00 	lea    0xc567(%rip),%r13        # 1041a <CSWTCH.1491+0xc2>
    3eb3:	4c 8d 25 ee c4 00 00 	lea    0xc4ee(%rip),%r12        # 103a8 <CSWTCH.1491+0x50>
    3eba:	66 0f 1f 44 00 00    	nopw   0x0(%rax,%rax,1)
    3ec0:	4c 89 ee             	mov    %r13,%rsi
    3ec3:	bf 02 00 00 00       	mov    $0x2,%edi
    3ec8:	31 c0                	xor    %eax,%eax
    3eca:	e8 e1 e5 ff ff       	call   24b0 <_init+0x4b0>
    3ecf:	48 8b 7d 18          	mov    0x18(%rbp),%rdi
    3ed3:	e8 f8 fd ff ff       	call   3cd0 <transmognify>
    3ed8:	48 89 c3             	mov    %rax,%rbx
    3edb:	48 85 c0             	test   %rax,%rax
    3ede:	75 18                	jne    3ef8 <add_src_txt+0x78>
    3ee0:	eb 3e                	jmp    3f20 <add_src_txt+0xa0>
    3ee2:	66 0f 1f 44 00 00    	nopw   0x0(%rax,%rax,1)
    3ee8:	48 8b 35 d1 2b 01 00 	mov    0x12bd1(%rip),%rsi        # 16ac0 <stdout@GLIBC_2.2.5>
    3eef:	e8 2c e5 ff ff       	call   2420 <_init+0x420>
    3ef4:	48 83 c3 01          	add    $0x1,%rbx
    3ef8:	0f be 3b             	movsbl (%rbx),%edi
    3efb:	40 84 ff             	test   %dil,%dil
    3efe:	74 20                	je     3f20 <add_src_txt+0xa0>
    3f00:	40 80 ff 0a          	cmp    $0xa,%dil
    3f04:	75 e2                	jne    3ee8 <add_src_txt+0x68>
    3f06:	4c 89 e6             	mov    %r12,%rsi
    3f09:	bf 02 00 00 00       	mov    $0x2,%edi
    3f0e:	31 c0                	xor    %eax,%eax
    3f10:	e8 9b e5 ff ff       	call   24b0 <_init+0x4b0>
    3f15:	eb dd                	jmp    3ef4 <add_src_txt+0x74>
    3f17:	66 0f 1f 84 00 00 00 	nopw   0x0(%rax,%rax,1)
    3f1e:	00 00 
    3f20:	bf 0a 00 00 00       	mov    $0xa,%edi
    3f25:	e8 d6 e3 ff ff       	call   2300 <_init+0x300>
    3f2a:	48 8b 6d 30          	mov    0x30(%rbp),%rbp
    3f2e:	48 85 ed             	test   %rbp,%rbp
    3f31:	75 8d                	jne    3ec0 <add_src_txt+0x40>
    3f33:	48 83 c4 08          	add    $0x8,%rsp
    3f37:	5b                   	pop    %rbx
    3f38:	5d                   	pop    %rbp
    3f39:	41 5c                	pop    %r12
    3f3b:	41 5d                	pop    %r13
    3f3d:	c3                   	ret    
    3f3e:	66 90                	xchg   %ax,%ax

0000000000003f40 <find_source>:
    3f40:	f3 0f 1e fa          	endbr64 
    3f44:	48 63 ff             	movslq %edi,%rdi
    3f47:	48 8d 05 62 2a 01 00 	lea    0x12a62(%rip),%rax        # 169b0 <flref>
    3f4e:	48 8d 15 44 c4 00 00 	lea    0xc444(%rip),%rdx        # 10399 <CSWTCH.1491+0x41>
    3f55:	48 8b 04 f8          	mov    (%rax,%rdi,8),%rax
    3f59:	39 70 08             	cmp    %esi,0x8(%rax)
    3f5c:	7f 05                	jg     3f63 <find_source+0x23>
    3f5e:	39 70 0c             	cmp    %esi,0xc(%rax)
    3f61:	7d 0d                	jge    3f70 <find_source+0x30>
    3f63:	48 89 d0             	mov    %rdx,%rax
    3f66:	c3                   	ret    
    3f67:	66 0f 1f 84 00 00 00 	nopw   0x0(%rax,%rax,1)
    3f6e:	00 00 
    3f70:	48 8b 10             	mov    (%rax),%rdx
    3f73:	48 89 d0             	mov    %rdx,%rax
    3f76:	c3                   	ret    
    3f77:	66 0f 1f 84 00 00 00 	nopw   0x0(%rax,%rax,1)
    3f7e:	00 00 

0000000000003f80 <f_pid>:
    3f80:	f3 0f 1e fa          	endbr64 
    3f84:	0f b6 05 35 6d 01 00 	movzbl 0x16d35(%rip),%eax        # 1acc0 <now>
    3f8b:	84 c0                	test   %al,%al
    3f8d:	74 41                	je     3fd0 <f_pid+0x50>
    3f8f:	48 8b 15 fa 2a 01 00 	mov    0x12afa(%rip),%rdx        # 16a90 <proc_offset>
    3f96:	83 e8 01             	sub    $0x1,%eax
    3f99:	48 8d 35 20 6d 01 00 	lea    0x16d20(%rip),%rsi        # 1acc0 <now>
    3fa0:	4c 8d 44 42 02       	lea    0x2(%rdx,%rax,2),%r8
    3fa5:	eb 12                	jmp    3fb9 <f_pid+0x39>
    3fa7:	66 0f 1f 84 00 00 00 	nopw   0x0(%rax,%rax,1)
    3fae:	00 00 
    3fb0:	48 83 c2 02          	add    $0x2,%rdx
    3fb4:	49 39 d0             	cmp    %rdx,%r8
    3fb7:	74 17                	je     3fd0 <f_pid+0x50>
    3fb9:	48 0f bf 02          	movswq (%rdx),%rax
    3fbd:	48 01 f0             	add    %rsi,%rax
    3fc0:	0f b6 48 01          	movzbl 0x1(%rax),%ecx
    3fc4:	83 e1 07             	and    $0x7,%ecx
    3fc7:	39 f9                	cmp    %edi,%ecx
    3fc9:	75 e5                	jne    3fb0 <f_pid+0x30>
    3fcb:	0f b6 00             	movzbl (%rax),%eax
    3fce:	c3                   	ret    
    3fcf:	90                   	nop
    3fd0:	b8 ff ff ff ff       	mov    $0xffffffff,%eax
    3fd5:	c3                   	ret    
    3fd6:	66 2e 0f 1f 84 00 00 	cs nopw 0x0(%rax,%rax,1)
    3fdd:	00 00 00 

0000000000003fe0 <make_trail>:
    3fe0:	f3 0f 1e fa          	endbr64 
    3fe4:	41 56                	push   %r14
    3fe6:	be 2f 00 00 00       	mov    $0x2f,%esi
    3feb:	41 55                	push   %r13
    3fed:	41 54                	push   %r12
    3fef:	55                   	push   %rbp
    3ff0:	53                   	push   %rbx
    3ff1:	48 81 ec 10 02 00 00 	sub    $0x210,%rsp
    3ff8:	48 8b 1d a1 2a 01 00 	mov    0x12aa1(%rip),%rbx        # 16aa0 <TrailFile>
    3fff:	0f b6 2d 68 61 01 00 	movzbl 0x16168(%rip),%ebp        # 1a16e <iterative>
    4006:	64 48 8b 04 25 28 00 	mov    %fs:0x28,%rax
    400d:	00 00 
    400f:	48 89 84 24 08 02 00 	mov    %rax,0x208(%rsp)
    4016:	00 
    4017:	31 c0                	xor    %eax,%eax
    4019:	48 89 df             	mov    %rbx,%rdi
    401c:	e8 9f e3 ff ff       	call   23c0 <_init+0x3c0>
    4021:	80 3d 45 61 01 00 01 	cmpb   $0x1,0x16145(%rip)        # 1a16d <exclusive>
    4028:	0f 84 82 01 00 00    	je     41b0 <make_trail+0x1d0>
    402e:	48 8d 50 01          	lea    0x1(%rax),%rdx
    4032:	48 85 c0             	test   %rax,%rax
    4035:	49 89 e4             	mov    %rsp,%r12
    4038:	48 0f 45 da          	cmovne %rdx,%rbx
    403c:	4c 89 e7             	mov    %r12,%rdi
    403f:	ba 00 02 00 00       	mov    $0x200,%edx
    4044:	48 89 de             	mov    %rbx,%rsi
    4047:	e8 54 e4 ff ff       	call   24a0 <_init+0x4a0>
    404c:	40 84 ed             	test   %bpl,%bpl
    404f:	0f 85 a8 01 00 00    	jne    41fd <make_trail+0x21d>
    4055:	41 be 41 02 00 00    	mov    $0x241,%r14d
    405b:	8b 05 c3 6a 01 00    	mov    0x16ac3(%rip),%eax        # 1ab24 <Nr_Trails>
    4061:	4c 8b 0d 08 2a 01 00 	mov    0x12a08(%rip),%r9        # 16a70 <tprefix>
    4068:	8d 50 01             	lea    0x1(%rax),%edx
    406b:	89 15 b3 6a 01 00    	mov    %edx,0x16ab3(%rip)        # 1ab24 <Nr_Trails>
    4071:	85 c0                	test   %eax,%eax
    4073:	0f 8f ff 00 00 00    	jg     4178 <make_trail+0x198>
    4079:	4d 89 e0             	mov    %r12,%r8
    407c:	ba 00 02 00 00       	mov    $0x200,%edx
    4081:	be 02 00 00 00       	mov    $0x2,%esi
    4086:	31 c0                	xor    %eax,%eax
    4088:	48 8d 2d 51 51 01 00 	lea    0x15151(%rip),%rbp        # 191e0 <fnm>
    408f:	48 8d 0d 8f c3 00 00 	lea    0xc38f(%rip),%rcx        # 10425 <CSWTCH.1491+0xcd>
    4096:	48 89 ef             	mov    %rbp,%rdi
    4099:	e8 f2 e4 ff ff       	call   2590 <_init+0x590>
    409e:	48 8b 15 8b 1f 01 00 	mov    0x11f8b(%rip),%rdx        # 16030 <TMODE>
    40a5:	44 89 f6             	mov    %r14d,%esi
    40a8:	48 89 ef             	mov    %rbp,%rdi
    40ab:	31 c0                	xor    %eax,%eax
    40ad:	e8 1e e4 ff ff       	call   24d0 <_init+0x4d0>
    40b2:	89 c3                	mov    %eax,%ebx
    40b4:	85 c0                	test   %eax,%eax
    40b6:	79 7c                	jns    4134 <make_trail+0x154>
    40b8:	be 2e 00 00 00       	mov    $0x2e,%esi
    40bd:	4c 89 e7             	mov    %r12,%rdi
    40c0:	e8 eb e2 ff ff       	call   23b0 <_init+0x3b0>
    40c5:	49 89 c5             	mov    %rax,%r13
    40c8:	48 85 c0             	test   %rax,%rax
    40cb:	0f 84 b7 01 00 00    	je     4288 <make_trail+0x2a8>
    40d1:	80 3d 96 60 01 00 00 	cmpb   $0x0,0x16096(%rip)        # 1a16e <iterative>
    40d8:	c6 00 00             	movb   $0x0,(%rax)
    40db:	4c 8b 0d 8e 29 01 00 	mov    0x1298e(%rip),%r9        # 16a70 <tprefix>
    40e2:	75 0f                	jne    40f3 <make_trail+0x113>
    40e4:	8b 05 3a 6a 01 00    	mov    0x16a3a(%rip),%eax        # 1ab24 <Nr_Trails>
    40ea:	83 f8 01             	cmp    $0x1,%eax
    40ed:	0f 8f 1d 01 00 00    	jg     4210 <make_trail+0x230>
    40f3:	ba 00 02 00 00       	mov    $0x200,%edx
    40f8:	4d 89 e0             	mov    %r12,%r8
    40fb:	be 02 00 00 00       	mov    $0x2,%esi
    4100:	48 89 ef             	mov    %rbp,%rdi
    4103:	48 8d 0d 1b c3 00 00 	lea    0xc31b(%rip),%rcx        # 10425 <CSWTCH.1491+0xcd>
    410a:	31 c0                	xor    %eax,%eax
    410c:	e8 7f e4 ff ff       	call   2590 <_init+0x590>
    4111:	41 c6 45 00 2e       	movb   $0x2e,0x0(%r13)
    4116:	48 8b 15 13 1f 01 00 	mov    0x11f13(%rip),%rdx        # 16030 <TMODE>
    411d:	44 89 f6             	mov    %r14d,%esi
    4120:	48 89 ef             	mov    %rbp,%rdi
    4123:	31 c0                	xor    %eax,%eax
    4125:	e8 a6 e3 ff ff       	call   24d0 <_init+0x4d0>
    412a:	89 c3                	mov    %eax,%ebx
    412c:	85 c0                	test   %eax,%eax
    412e:	0f 88 54 01 00 00    	js     4288 <make_trail+0x2a8>
    4134:	48 89 ea             	mov    %rbp,%rdx
    4137:	48 8d 35 0a c3 00 00 	lea    0xc30a(%rip),%rsi        # 10448 <CSWTCH.1491+0xf0>
    413e:	bf 02 00 00 00       	mov    $0x2,%edi
    4143:	31 c0                	xor    %eax,%eax
    4145:	e8 66 e3 ff ff       	call   24b0 <_init+0x4b0>
    414a:	48 8b 84 24 08 02 00 	mov    0x208(%rsp),%rax
    4151:	00 
    4152:	64 48 2b 04 25 28 00 	sub    %fs:0x28,%rax
    4159:	00 00 
    415b:	0f 85 4e 01 00 00    	jne    42af <make_trail+0x2cf>
    4161:	48 81 c4 10 02 00 00 	add    $0x210,%rsp
    4168:	89 d8                	mov    %ebx,%eax
    416a:	5b                   	pop    %rbx
    416b:	5d                   	pop    %rbp
    416c:	41 5c                	pop    %r12
    416e:	41 5d                	pop    %r13
    4170:	41 5e                	pop    %r14
    4172:	c3                   	ret    
    4173:	0f 1f 44 00 00       	nopl   0x0(%rax,%rax,1)
    4178:	48 83 ec 08          	sub    $0x8,%rsp
    417c:	be 02 00 00 00       	mov    $0x2,%esi
    4181:	4d 89 e0             	mov    %r12,%r8
    4184:	ba 00 02 00 00       	mov    $0x200,%edx
    4189:	41 51                	push   %r9
    418b:	48 8d 2d 4e 50 01 00 	lea    0x1504e(%rip),%rbp        # 191e0 <fnm>
    4192:	41 89 c1             	mov    %eax,%r9d
    4195:	48 8d 0d 81 c2 00 00 	lea    0xc281(%rip),%rcx        # 1041d <CSWTCH.1491+0xc5>
    419c:	48 89 ef             	mov    %rbp,%rdi
    419f:	31 c0                	xor    %eax,%eax
    41a1:	e8 ea e3 ff ff       	call   2590 <_init+0x590>
    41a6:	5e                   	pop    %rsi
    41a7:	5f                   	pop    %rdi
    41a8:	e9 f1 fe ff ff       	jmp    409e <make_trail+0xbe>
    41ad:	0f 1f 00             	nopl   (%rax)
    41b0:	40 84 ed             	test   %bpl,%bpl
    41b3:	75 2b                	jne    41e0 <make_trail+0x200>
    41b5:	48 85 c0             	test   %rax,%rax
    41b8:	0f 84 92 00 00 00    	je     4250 <make_trail+0x270>
    41be:	49 89 e4             	mov    %rsp,%r12
    41c1:	48 8d 70 01          	lea    0x1(%rax),%rsi
    41c5:	ba 00 02 00 00       	mov    $0x200,%edx
    41ca:	4c 89 e7             	mov    %r12,%rdi
    41cd:	e8 ce e2 ff ff       	call   24a0 <_init+0x4a0>
    41d2:	41 be c1 02 00 00    	mov    $0x2c1,%r14d
    41d8:	e9 7e fe ff ff       	jmp    405b <make_trail+0x7b>
    41dd:	0f 1f 00             	nopl   (%rax)
    41e0:	48 85 c0             	test   %rax,%rax
    41e3:	0f 84 87 00 00 00    	je     4270 <make_trail+0x290>
    41e9:	49 89 e4             	mov    %rsp,%r12
    41ec:	48 8d 70 01          	lea    0x1(%rax),%rsi
    41f0:	ba 00 02 00 00       	mov    $0x200,%edx
    41f5:	4c 89 e7             	mov    %r12,%rdi
    41f8:	e8 a3 e2 ff ff       	call   24a0 <_init+0x4a0>
    41fd:	4c 8b 0d 6c 28 01 00 	mov    0x1286c(%rip),%r9        # 16a70 <tprefix>
    4204:	41 be 41 02 00 00    	mov    $0x241,%r14d
    420a:	e9 6a fe ff ff       	jmp    4079 <make_trail+0x99>
    420f:	90                   	nop
    4210:	48 83 ec 08          	sub    $0x8,%rsp
    4214:	ba 00 02 00 00       	mov    $0x200,%edx
    4219:	4d 89 e0             	mov    %r12,%r8
    421c:	48 89 ef             	mov    %rbp,%rdi
    421f:	41 51                	push   %r9
    4221:	48 8d 0d f5 c1 00 00 	lea    0xc1f5(%rip),%rcx        # 1041d <CSWTCH.1491+0xc5>
    4228:	44 8d 48 ff          	lea    -0x1(%rax),%r9d
    422c:	be 02 00 00 00       	mov    $0x2,%esi
    4231:	31 c0                	xor    %eax,%eax
    4233:	e8 58 e3 ff ff       	call   2590 <_init+0x590>
    4238:	41 c6 45 00 2e       	movb   $0x2e,0x0(%r13)
    423d:	58                   	pop    %rax
    423e:	48 8b 15 eb 1d 01 00 	mov    0x11deb(%rip),%rdx        # 16030 <TMODE>
    4245:	59                   	pop    %rcx
    4246:	e9 d2 fe ff ff       	jmp    411d <make_trail+0x13d>
    424b:	0f 1f 44 00 00       	nopl   0x0(%rax,%rax,1)
    4250:	49 89 e4             	mov    %rsp,%r12
    4253:	ba 00 02 00 00       	mov    $0x200,%edx
    4258:	48 89 de             	mov    %rbx,%rsi
    425b:	4c 89 e7             	mov    %r12,%rdi
    425e:	e8 3d e2 ff ff       	call   24a0 <_init+0x4a0>
    4263:	e9 6a ff ff ff       	jmp    41d2 <make_trail+0x1f2>
    4268:	0f 1f 84 00 00 00 00 	nopl   0x0(%rax,%rax,1)
    426f:	00 
    4270:	49 89 e4             	mov    %rsp,%r12
    4273:	ba 00 02 00 00       	mov    $0x200,%edx
    4278:	48 89 de             	mov    %rbx,%rsi
    427b:	4c 89 e7             	mov    %r12,%rdi
    427e:	e8 1d e2 ff ff       	call   24a0 <_init+0x4a0>
    4283:	e9 75 ff ff ff       	jmp    41fd <make_trail+0x21d>
    4288:	48 89 ea             	mov    %rbp,%rdx
    428b:	48 8d 35 99 c1 00 00 	lea    0xc199(%rip),%rsi        # 1042b <CSWTCH.1491+0xd3>
    4292:	bf 02 00 00 00       	mov    $0x2,%edi
    4297:	31 c0                	xor    %eax,%eax
    4299:	e8 12 e2 ff ff       	call   24b0 <_init+0x4b0>
    429e:	48 8d 3d 9d c1 00 00 	lea    0xc19d(%rip),%rdi        # 10442 <CSWTCH.1491+0xea>
    42a5:	e8 56 e2 ff ff       	call   2500 <_init+0x500>
    42aa:	e9 9b fe ff ff       	jmp    414a <make_trail+0x16a>
    42af:	e8 ec e0 ff ff       	call   23a0 <_init+0x3a0>
    42b4:	66 66 2e 0f 1f 84 00 	data16 cs nopw 0x0(%rax,%rax,1)
    42bb:	00 00 00 00 
    42bf:	90                   	nop

00000000000042c0 <start_timer>:
    42c0:	f3 0f 1e fa          	endbr64 
    42c4:	48 83 ec 08          	sub    $0x8,%rsp
    42c8:	48 8d 3d d1 4e 01 00 	lea    0x14ed1(%rip),%rdi        # 191a0 <start_tm>
    42cf:	e8 0c e2 ff ff       	call   24e0 <_init+0x4e0>
    42d4:	48 89 05 e5 4e 01 00 	mov    %rax,0x14ee5(%rip)        # 191c0 <start_time>
    42db:	48 83 c4 08          	add    $0x8,%rsp
    42df:	c3                   	ret    

00000000000042e0 <report_time>:
    42e0:	f3 0f 1e fa          	endbr64 
    42e4:	48 83 ec 08          	sub    $0x8,%rsp
    42e8:	bf 02 00 00 00       	mov    $0x2,%edi
    42ed:	b8 01 00 00 00       	mov    $0x1,%eax
    42f2:	f2 0f 10 05 9e 4e 01 	movsd  0x14e9e(%rip),%xmm0        # 19198 <delta_time>
    42f9:	00 
    42fa:	48 8d 35 4f d1 00 00 	lea    0xd14f(%rip),%rsi        # 11450 <CSWTCH.1491+0x10f8>
    4301:	e8 aa e1 ff ff       	call   24b0 <_init+0x4b0>
    4306:	f2 0f 10 0d 8a 4e 01 	movsd  0x14e8a(%rip),%xmm1        # 19198 <delta_time>
    430d:	00 
    430e:	66 0f 2f 0d 2a eb 00 	comisd 0xeb2a(%rip),%xmm1        # 12e40 <CSWTCH.1491+0x2ae8>
    4315:	00 
    4316:	77 08                	ja     4320 <report_time+0x40>
    4318:	48 83 c4 08          	add    $0x8,%rsp
    431c:	c3                   	ret    
    431d:	0f 1f 00             	nopl   (%rax)
    4320:	f2 0f 10 05 d0 68 01 	movsd  0x168d0(%rip),%xmm0        # 1abf8 <nstates>
    4327:	00 
    4328:	bf 02 00 00 00       	mov    $0x2,%edi
    432d:	b8 01 00 00 00       	mov    $0x1,%eax
    4332:	48 8d 35 3f d1 00 00 	lea    0xd13f(%rip),%rsi        # 11478 <CSWTCH.1491+0x1120>
    4339:	f2 0f 5e c1          	divsd  %xmm1,%xmm0
    433d:	e8 6e e1 ff ff       	call   24b0 <_init+0x4b0>
    4342:	8b 05 10 68 01 00    	mov    0x16810(%rip),%eax        # 1ab58 <verbose>
    4348:	85 c0                	test   %eax,%eax
    434a:	74 cc                	je     4318 <report_time+0x38>
    434c:	f2 0f 10 0d a4 68 01 	movsd  0x168a4(%rip),%xmm1        # 1abf8 <nstates>
    4353:	00 
    4354:	bf 02 00 00 00       	mov    $0x2,%edi
    4359:	b8 01 00 00 00       	mov    $0x1,%eax
    435e:	f2 0f 58 0d 82 68 01 	addsd  0x16882(%rip),%xmm1        # 1abe8 <truncs>
    4365:	00 
    4366:	f2 0f 10 05 2a 4e 01 	movsd  0x14e2a(%rip),%xmm0        # 19198 <delta_time>
    436d:	00 
    436e:	48 8d 35 23 d1 00 00 	lea    0xd123(%rip),%rsi        # 11498 <CSWTCH.1491+0x1140>
    4375:	48 83 c4 08          	add    $0x8,%rsp
    4379:	f2 0f 5e c1          	divsd  %xmm1,%xmm0
    437d:	e9 2e e1 ff ff       	jmp    24b0 <_init+0x4b0>
    4382:	66 66 2e 0f 1f 84 00 	data16 cs nopw 0x0(%rax,%rax,1)
    4389:	00 00 00 00 
    438d:	0f 1f 00             	nopl   (%rax)

0000000000004390 <stop_timer>:
    4390:	f3 0f 1e fa          	endbr64 
    4394:	53                   	push   %rbx
    4395:	89 fb                	mov    %edi,%ebx
    4397:	48 83 ec 40          	sub    $0x40,%rsp
    439b:	64 48 8b 04 25 28 00 	mov    %fs:0x28,%rax
    43a2:	00 00 
    43a4:	48 89 44 24 38       	mov    %rax,0x38(%rsp)
    43a9:	31 c0                	xor    %eax,%eax
    43ab:	48 8d 7c 24 10       	lea    0x10(%rsp),%rdi
    43b0:	e8 2b e1 ff ff       	call   24e0 <_init+0x4e0>
    43b5:	66 0f ef c0          	pxor   %xmm0,%xmm0
    43b9:	bf 02 00 00 00       	mov    $0x2,%edi
    43be:	48 2b 05 fb 4d 01 00 	sub    0x14dfb(%rip),%rax        # 191c0 <start_time>
    43c5:	f2 48 0f 2a c0       	cvtsi2sd %rax,%xmm0
    43ca:	f2 0f 11 44 24 08    	movsd  %xmm0,0x8(%rsp)
    43d0:	e8 3b e1 ff ff       	call   2510 <_init+0x510>
    43d5:	66 0f ef c9          	pxor   %xmm1,%xmm1
    43d9:	f2 0f 10 44 24 08    	movsd  0x8(%rsp),%xmm0
    43df:	f2 48 0f 2a c8       	cvtsi2sd %rax,%xmm1
    43e4:	8b 05 5e 67 01 00    	mov    0x1675e(%rip),%eax        # 1ab48 <readtrail>
    43ea:	f2 0f 5e c1          	divsd  %xmm1,%xmm0
    43ee:	f2 0f 11 05 a2 4d 01 	movsd  %xmm0,0x14da2(%rip)        # 19198 <delta_time>
    43f5:	00 
    43f6:	85 c0                	test   %eax,%eax
    43f8:	75 0e                	jne    4408 <stop_timer+0x78>
    43fa:	66 0f ef c9          	pxor   %xmm1,%xmm1
    43fe:	66 0f 2f c8          	comisd %xmm0,%xmm1
    4402:	77 04                	ja     4408 <stop_timer+0x78>
    4404:	85 db                	test   %ebx,%ebx
    4406:	75 18                	jne    4420 <stop_timer+0x90>
    4408:	48 8b 44 24 38       	mov    0x38(%rsp),%rax
    440d:	64 48 2b 04 25 28 00 	sub    %fs:0x28,%rax
    4414:	00 00 
    4416:	75 0f                	jne    4427 <stop_timer+0x97>
    4418:	48 83 c4 40          	add    $0x40,%rsp
    441c:	5b                   	pop    %rbx
    441d:	c3                   	ret    
    441e:	66 90                	xchg   %ax,%ax
    4420:	e8 bb fe ff ff       	call   42e0 <report_time>
    4425:	eb e1                	jmp    4408 <stop_timer+0x78>
    4427:	e8 74 df ff ff       	call   23a0 <_init+0x3a0>
    442c:	0f 1f 40 00          	nopl   0x0(%rax)

0000000000004430 <pan_exit>:
    4430:	f3 0f 1e fa          	endbr64 
    4434:	8b 05 1a 67 01 00    	mov    0x1671a(%rip),%eax        # 1ab54 <signoff>
    443a:	53                   	push   %rbx
    443b:	89 fb                	mov    %edi,%ebx
    443d:	85 c0                	test   %eax,%eax
    443f:	75 19                	jne    445a <pan_exit+0x2a>
    4441:	31 c0                	xor    %eax,%eax
    4443:	83 fb 02             	cmp    $0x2,%ebx
    4446:	bf 01 00 00 00       	mov    $0x1,%edi
    444b:	0f 44 d8             	cmove  %eax,%ebx
    444e:	e8 3d ff ff ff       	call   4390 <stop_timer>
    4453:	89 df                	mov    %ebx,%edi
    4455:	e8 d6 e0 ff ff       	call   2530 <_init+0x530>
    445a:	48 8d 3d f6 bf 00 00 	lea    0xbff6(%rip),%rdi        # 10457 <CSWTCH.1491+0xff>
    4461:	e8 fa de ff ff       	call   2360 <_init+0x360>
    4466:	eb d9                	jmp    4441 <pan_exit+0x11>
    4468:	0f 1f 84 00 00 00 00 	nopl   0x0(%rax,%rax,1)
    446f:	00 

0000000000004470 <findtrail>:
    4470:	f3 0f 1e fa          	endbr64 
    4474:	41 57                	push   %r15
    4476:	41 56                	push   %r14
    4478:	41 55                	push   %r13
    447a:	41 54                	push   %r12
    447c:	55                   	push   %rbp
    447d:	53                   	push   %rbx
    447e:	48 81 ec 38 04 00 00 	sub    $0x438,%rsp
    4485:	48 8b 3d 64 70 01 00 	mov    0x17064(%rip),%rdi        # 1b4f0 <trailfilename>
    448c:	64 48 8b 04 25 28 00 	mov    %fs:0x28,%rax
    4493:	00 00 
    4495:	48 89 84 24 28 04 00 	mov    %rax,0x428(%rsp)
    449c:	00 
    449d:	31 c0                	xor    %eax,%eax
    449f:	48 85 ff             	test   %rdi,%rdi
    44a2:	74 44                	je     44e8 <findtrail+0x78>
    44a4:	48 8d 35 c5 c5 00 00 	lea    0xc5c5(%rip),%rsi        # 10a70 <CSWTCH.1491+0x718>
    44ab:	e8 40 e0 ff ff       	call   24f0 <_init+0x4f0>
    44b0:	48 85 c0             	test   %rax,%rax
    44b3:	0f 84 a0 05 00 00    	je     4a59 <findtrail+0x5e9>
    44b9:	48 8b 94 24 28 04 00 	mov    0x428(%rsp),%rdx
    44c0:	00 
    44c1:	64 48 2b 14 25 28 00 	sub    %fs:0x28,%rdx
    44c8:	00 00 
    44ca:	0f 85 84 05 00 00    	jne    4a54 <findtrail+0x5e4>
    44d0:	48 81 c4 38 04 00 00 	add    $0x438,%rsp
    44d7:	5b                   	pop    %rbx
    44d8:	5d                   	pop    %rbp
    44d9:	41 5c                	pop    %r12
    44db:	41 5d                	pop    %r13
    44dd:	41 5e                	pop    %r14
    44df:	41 5f                	pop    %r15
    44e1:	c3                   	ret    
    44e2:	66 0f 1f 44 00 00    	nopw   0x0(%rax,%rax,1)
    44e8:	4c 8d 2d 81 c5 00 00 	lea    0xc581(%rip),%r13        # 10a70 <CSWTCH.1491+0x718>
    44ef:	4c 8d 35 9b bf 00 00 	lea    0xbf9b(%rip),%r14        # 10491 <CSWTCH.1491+0x139>
    44f6:	48 8d ac 24 20 02 00 	lea    0x220(%rsp),%rbp
    44fd:	00 
    44fe:	4c 8d 64 24 20       	lea    0x20(%rsp),%r12
    4503:	4c 8d 7c 24 10       	lea    0x10(%rsp),%r15
    4508:	e9 3c 01 00 00       	jmp    4649 <findtrail+0x1d9>
    450d:	0f 1f 00             	nopl   (%rax)
    4510:	48 83 ec 08          	sub    $0x8,%rsp
    4514:	41 89 d9             	mov    %ebx,%r9d
    4517:	ba 00 02 00 00       	mov    $0x200,%edx
    451c:	49 89 e8             	mov    %rbp,%r8
    451f:	41 56                	push   %r14
    4521:	48 8d 0d f5 be 00 00 	lea    0xbef5(%rip),%rcx        # 1041d <CSWTCH.1491+0xc5>
    4528:	be 02 00 00 00       	mov    $0x2,%esi
    452d:	31 c0                	xor    %eax,%eax
    452f:	4c 89 e7             	mov    %r12,%rdi
    4532:	e8 59 e0 ff ff       	call   2590 <_init+0x590>
    4537:	4c 89 ee             	mov    %r13,%rsi
    453a:	4c 89 e7             	mov    %r12,%rdi
    453d:	e8 ae df ff ff       	call   24f0 <_init+0x4f0>
    4542:	48 89 c3             	mov    %rax,%rbx
    4545:	58                   	pop    %rax
    4546:	5a                   	pop    %rdx
    4547:	48 85 db             	test   %rbx,%rbx
    454a:	0f 84 4b 04 00 00    	je     499b <findtrail+0x52b>
    4550:	83 3d 01 66 01 00 64 	cmpl   $0x64,0x16601(%rip)        # 1ab58 <verbose>
    4557:	0f 84 e3 02 00 00    	je     4840 <findtrail+0x3d0>
    455d:	48 89 df             	mov    %rbx,%rdi
    4560:	e8 1b de ff ff       	call   2380 <_init+0x380>
    4565:	be 2e 00 00 00       	mov    $0x2e,%esi
    456a:	48 89 ef             	mov    %rbp,%rdi
    456d:	e8 3e de ff ff       	call   23b0 <_init+0x3b0>
    4572:	48 89 c3             	mov    %rax,%rbx
    4575:	48 85 c0             	test   %rax,%rax
    4578:	0f 84 a2 01 00 00    	je     4720 <findtrail+0x2b0>
    457e:	48 83 ec 08          	sub    $0x8,%rsp
    4582:	c6 00 00             	movb   $0x0,(%rax)
    4585:	44 8b 0d b8 65 01 00 	mov    0x165b8(%rip),%r9d        # 1ab44 <whichtrail>
    458c:	31 c0                	xor    %eax,%eax
    458e:	49 89 e8             	mov    %rbp,%r8
    4591:	ba 00 02 00 00       	mov    $0x200,%edx
    4596:	be 02 00 00 00       	mov    $0x2,%esi
    459b:	4c 89 e7             	mov    %r12,%rdi
    459e:	ff 35 cc 24 01 00    	push   0x124cc(%rip)        # 16a70 <tprefix>
    45a4:	48 8d 0d 72 be 00 00 	lea    0xbe72(%rip),%rcx        # 1041d <CSWTCH.1491+0xc5>
    45ab:	e8 e0 df ff ff       	call   2590 <_init+0x590>
    45b0:	c6 03 2e             	movb   $0x2e,(%rbx)
    45b3:	4c 89 ee             	mov    %r13,%rsi
    45b6:	4c 89 e7             	mov    %r12,%rdi
    45b9:	e8 32 df ff ff       	call   24f0 <_init+0x4f0>
    45be:	49 89 c0             	mov    %rax,%r8
    45c1:	58                   	pop    %rax
    45c2:	5a                   	pop    %rdx
    45c3:	4d 85 c0             	test   %r8,%r8
    45c6:	0f 84 54 01 00 00    	je     4720 <findtrail+0x2b0>
    45cc:	bb 01 00 00 00       	mov    $0x1,%ebx
    45d1:	83 c3 01             	add    $0x1,%ebx
    45d4:	83 3d 7d 65 01 00 64 	cmpl   $0x64,0x1657d(%rip)        # 1ab58 <verbose>
    45db:	0f 84 2f 02 00 00    	je     4810 <findtrail+0x3a0>
    45e1:	4c 89 c7             	mov    %r8,%rdi
    45e4:	e8 97 dd ff ff       	call   2380 <_init+0x380>
    45e9:	31 c0                	xor    %eax,%eax
    45eb:	41 b8 01 00 00 00    	mov    $0x1,%r8d
    45f1:	4c 89 ff             	mov    %r15,%rdi
    45f4:	48 8d 0d 90 be 00 00 	lea    0xbe90(%rip),%rcx        # 1048b <CSWTCH.1491+0x133>
    45fb:	ba 10 00 00 00       	mov    $0x10,%edx
    4600:	be 02 00 00 00       	mov    $0x2,%esi
    4605:	4c 89 3d 64 24 01 00 	mov    %r15,0x12464(%rip)        # 16a70 <tprefix>
    460c:	e8 7f df ff ff       	call   2590 <_init+0x590>
    4611:	83 fb 01             	cmp    $0x1,%ebx
    4614:	0f 84 2e 01 00 00    	je     4748 <findtrail+0x2d8>
    461a:	ba 02 00 00 00       	mov    $0x2,%edx
    461f:	83 3d 32 65 01 00 64 	cmpl   $0x64,0x16532(%rip)        # 1ab58 <verbose>
    4626:	0f 84 14 03 00 00    	je     4940 <findtrail+0x4d0>
    462c:	48 8d 35 8d ce 00 00 	lea    0xce8d(%rip),%rsi        # 114c0 <CSWTCH.1491+0x1168>
    4633:	bf 02 00 00 00       	mov    $0x2,%edi
    4638:	31 c0                	xor    %eax,%eax
    463a:	e8 71 de ff ff       	call   24b0 <_init+0x4b0>
    463f:	c7 05 0f 65 01 00 64 	movl   $0x64,0x1650f(%rip)        # 1ab58 <verbose>
    4646:	00 00 00 
    4649:	48 8b 35 50 24 01 00 	mov    0x12450(%rip),%rsi        # 16aa0 <TrailFile>
    4650:	ba 00 02 00 00       	mov    $0x200,%edx
    4655:	48 89 ef             	mov    %rbp,%rdi
    4658:	4c 89 35 11 24 01 00 	mov    %r14,0x12411(%rip)        # 16a70 <tprefix>
    465f:	e8 3c de ff ff       	call   24a0 <_init+0x4a0>
    4664:	8b 1d da 64 01 00    	mov    0x164da(%rip),%ebx        # 1ab44 <whichtrail>
    466a:	85 db                	test   %ebx,%ebx
    466c:	0f 85 9e fe ff ff    	jne    4510 <findtrail+0xa0>
    4672:	49 89 e8             	mov    %rbp,%r8
    4675:	4c 8d 0d 15 be 00 00 	lea    0xbe15(%rip),%r9        # 10491 <CSWTCH.1491+0x139>
    467c:	4c 89 e7             	mov    %r12,%rdi
    467f:	31 c0                	xor    %eax,%eax
    4681:	48 8d 0d 9d bd 00 00 	lea    0xbd9d(%rip),%rcx        # 10425 <CSWTCH.1491+0xcd>
    4688:	ba 00 02 00 00       	mov    $0x200,%edx
    468d:	be 02 00 00 00       	mov    $0x2,%esi
    4692:	e8 f9 de ff ff       	call   2590 <_init+0x590>
    4697:	4c 89 ee             	mov    %r13,%rsi
    469a:	4c 89 e7             	mov    %r12,%rdi
    469d:	e8 4e de ff ff       	call   24f0 <_init+0x4f0>
    46a2:	49 89 c0             	mov    %rax,%r8
    46a5:	48 85 c0             	test   %rax,%rax
    46a8:	0f 84 a8 02 00 00    	je     4956 <findtrail+0x4e6>
    46ae:	83 3d a3 64 01 00 64 	cmpl   $0x64,0x164a3(%rip)        # 1ab58 <verbose>
    46b5:	0f 84 a5 01 00 00    	je     4860 <findtrail+0x3f0>
    46bb:	4c 89 c7             	mov    %r8,%rdi
    46be:	e8 bd dc ff ff       	call   2380 <_init+0x380>
    46c3:	be 2e 00 00 00       	mov    $0x2e,%esi
    46c8:	48 89 ef             	mov    %rbp,%rdi
    46cb:	e8 e0 dc ff ff       	call   23b0 <_init+0x3b0>
    46d0:	48 89 c3             	mov    %rax,%rbx
    46d3:	48 85 c0             	test   %rax,%rax
    46d6:	74 48                	je     4720 <findtrail+0x2b0>
    46d8:	c6 00 00             	movb   $0x0,(%rax)
    46db:	4c 8b 0d 8e 23 01 00 	mov    0x1238e(%rip),%r9        # 16a70 <tprefix>
    46e2:	49 89 e8             	mov    %rbp,%r8
    46e5:	4c 89 e7             	mov    %r12,%rdi
    46e8:	48 8d 0d 36 bd 00 00 	lea    0xbd36(%rip),%rcx        # 10425 <CSWTCH.1491+0xcd>
    46ef:	ba 00 02 00 00       	mov    $0x200,%edx
    46f4:	be 02 00 00 00       	mov    $0x2,%esi
    46f9:	31 c0                	xor    %eax,%eax
    46fb:	e8 90 de ff ff       	call   2590 <_init+0x590>
    4700:	c6 03 2e             	movb   $0x2e,(%rbx)
    4703:	4c 89 ee             	mov    %r13,%rsi
    4706:	4c 89 e7             	mov    %r12,%rdi
    4709:	e8 e2 dd ff ff       	call   24f0 <_init+0x4f0>
    470e:	49 89 c0             	mov    %rax,%r8
    4711:	48 85 c0             	test   %rax,%rax
    4714:	0f 85 b2 fe ff ff    	jne    45cc <findtrail+0x15c>
    471a:	66 0f 1f 44 00 00    	nopw   0x0(%rax,%rax,1)
    4720:	41 b8 01 00 00 00    	mov    $0x1,%r8d
    4726:	ba 10 00 00 00       	mov    $0x10,%edx
    472b:	4c 89 ff             	mov    %r15,%rdi
    472e:	31 c0                	xor    %eax,%eax
    4730:	48 8d 0d 54 bd 00 00 	lea    0xbd54(%rip),%rcx        # 1048b <CSWTCH.1491+0x133>
    4737:	be 02 00 00 00       	mov    $0x2,%esi
    473c:	4c 89 3d 2d 23 01 00 	mov    %r15,0x1232d(%rip)        # 16a70 <tprefix>
    4743:	e8 48 de ff ff       	call   2590 <_init+0x590>
    4748:	48 8b 35 51 23 01 00 	mov    0x12351(%rip),%rsi        # 16aa0 <TrailFile>
    474f:	ba 00 02 00 00       	mov    $0x200,%edx
    4754:	48 89 ef             	mov    %rbp,%rdi
    4757:	e8 44 dd ff ff       	call   24a0 <_init+0x4a0>
    475c:	44 8b 0d e1 63 01 00 	mov    0x163e1(%rip),%r9d        # 1ab44 <whichtrail>
    4763:	4c 89 35 06 23 01 00 	mov    %r14,0x12306(%rip)        # 16a70 <tprefix>
    476a:	45 85 c9             	test   %r9d,%r9d
    476d:	0f 84 1d 01 00 00    	je     4890 <findtrail+0x420>
    4773:	48 83 ec 08          	sub    $0x8,%rsp
    4777:	48 8d 1d 9f bc 00 00 	lea    0xbc9f(%rip),%rbx        # 1041d <CSWTCH.1491+0xc5>
    477e:	49 89 e8             	mov    %rbp,%r8
    4781:	31 c0                	xor    %eax,%eax
    4783:	41 56                	push   %r14
    4785:	48 89 d9             	mov    %rbx,%rcx
    4788:	ba 00 02 00 00       	mov    $0x200,%edx
    478d:	be 02 00 00 00       	mov    $0x2,%esi
    4792:	4c 89 e7             	mov    %r12,%rdi
    4795:	e8 f6 dd ff ff       	call   2590 <_init+0x590>
    479a:	4c 89 ee             	mov    %r13,%rsi
    479d:	4c 89 e7             	mov    %r12,%rdi
    47a0:	e8 4b dd ff ff       	call   24f0 <_init+0x4f0>
    47a5:	41 5b                	pop    %r11
    47a7:	41 5e                	pop    %r14
    47a9:	48 85 c0             	test   %rax,%rax
    47ac:	0f 85 07 fd ff ff    	jne    44b9 <findtrail+0x49>
    47b2:	be 2e 00 00 00       	mov    $0x2e,%esi
    47b7:	48 89 ef             	mov    %rbp,%rdi
    47ba:	e8 f1 db ff ff       	call   23b0 <_init+0x3b0>
    47bf:	49 89 c6             	mov    %rax,%r14
    47c2:	48 85 c0             	test   %rax,%rax
    47c5:	0f 84 52 01 00 00    	je     491d <findtrail+0x4ad>
    47cb:	c6 00 00             	movb   $0x0,(%rax)
    47ce:	44 8b 0d 6f 63 01 00 	mov    0x1636f(%rip),%r9d        # 1ab44 <whichtrail>
    47d5:	48 89 d9             	mov    %rbx,%rcx
    47d8:	4c 89 e7             	mov    %r12,%rdi
    47db:	41 50                	push   %r8
    47dd:	ba 00 02 00 00       	mov    $0x200,%edx
    47e2:	49 89 e8             	mov    %rbp,%r8
    47e5:	be 02 00 00 00       	mov    $0x2,%esi
    47ea:	ff 35 80 22 01 00    	push   0x12280(%rip)        # 16a70 <tprefix>
    47f0:	31 c0                	xor    %eax,%eax
    47f2:	e8 99 dd ff ff       	call   2590 <_init+0x590>
    47f7:	41 c6 06 2e          	movb   $0x2e,(%r14)
    47fb:	4c 89 ee             	mov    %r13,%rsi
    47fe:	4c 89 e7             	mov    %r12,%rdi
    4801:	e8 ea dc ff ff       	call   24f0 <_init+0x4f0>
    4806:	41 59                	pop    %r9
    4808:	41 5a                	pop    %r10
    480a:	e9 05 01 00 00       	jmp    4914 <findtrail+0x4a4>
    480f:	90                   	nop
    4810:	4c 89 e1             	mov    %r12,%rcx
    4813:	89 da                	mov    %ebx,%edx
    4815:	48 8d 35 62 bc 00 00 	lea    0xbc62(%rip),%rsi        # 1047e <CSWTCH.1491+0x126>
    481c:	31 c0                	xor    %eax,%eax
    481e:	bf 02 00 00 00       	mov    $0x2,%edi
    4823:	4c 89 44 24 08       	mov    %r8,0x8(%rsp)
    4828:	e8 83 dc ff ff       	call   24b0 <_init+0x4b0>
    482d:	4c 8b 44 24 08       	mov    0x8(%rsp),%r8
    4832:	e9 aa fd ff ff       	jmp    45e1 <findtrail+0x171>
    4837:	66 0f 1f 84 00 00 00 	nopw   0x0(%rax,%rax,1)
    483e:	00 00 
    4840:	4c 89 e1             	mov    %r12,%rcx
    4843:	ba 01 00 00 00       	mov    $0x1,%edx
    4848:	bf 02 00 00 00       	mov    $0x2,%edi
    484d:	31 c0                	xor    %eax,%eax
    484f:	48 8d 35 28 bc 00 00 	lea    0xbc28(%rip),%rsi        # 1047e <CSWTCH.1491+0x126>
    4856:	e8 55 dc ff ff       	call   24b0 <_init+0x4b0>
    485b:	e9 fd fc ff ff       	jmp    455d <findtrail+0xed>
    4860:	48 89 44 24 08       	mov    %rax,0x8(%rsp)
    4865:	4c 89 e1             	mov    %r12,%rcx
    4868:	31 c0                	xor    %eax,%eax
    486a:	ba 01 00 00 00       	mov    $0x1,%edx
    486f:	48 8d 35 08 bc 00 00 	lea    0xbc08(%rip),%rsi        # 1047e <CSWTCH.1491+0x126>
    4876:	bf 02 00 00 00       	mov    $0x2,%edi
    487b:	e8 30 dc ff ff       	call   24b0 <_init+0x4b0>
    4880:	4c 8b 44 24 08       	mov    0x8(%rsp),%r8
    4885:	e9 31 fe ff ff       	jmp    46bb <findtrail+0x24b>
    488a:	66 0f 1f 44 00 00    	nopw   0x0(%rax,%rax,1)
    4890:	48 8d 1d 8e bb 00 00 	lea    0xbb8e(%rip),%rbx        # 10425 <CSWTCH.1491+0xcd>
    4897:	4c 89 e7             	mov    %r12,%rdi
    489a:	31 c0                	xor    %eax,%eax
    489c:	49 89 e8             	mov    %rbp,%r8
    489f:	be 02 00 00 00       	mov    $0x2,%esi
    48a4:	4c 8d 0d e6 bb 00 00 	lea    0xbbe6(%rip),%r9        # 10491 <CSWTCH.1491+0x139>
    48ab:	48 89 d9             	mov    %rbx,%rcx
    48ae:	ba 00 02 00 00       	mov    $0x200,%edx
    48b3:	e8 d8 dc ff ff       	call   2590 <_init+0x590>
    48b8:	4c 89 ee             	mov    %r13,%rsi
    48bb:	4c 89 e7             	mov    %r12,%rdi
    48be:	e8 2d dc ff ff       	call   24f0 <_init+0x4f0>
    48c3:	48 85 c0             	test   %rax,%rax
    48c6:	0f 85 ed fb ff ff    	jne    44b9 <findtrail+0x49>
    48cc:	be 2e 00 00 00       	mov    $0x2e,%esi
    48d1:	48 89 ef             	mov    %rbp,%rdi
    48d4:	e8 d7 da ff ff       	call   23b0 <_init+0x3b0>
    48d9:	49 89 c6             	mov    %rax,%r14
    48dc:	48 85 c0             	test   %rax,%rax
    48df:	74 3c                	je     491d <findtrail+0x4ad>
    48e1:	c6 00 00             	movb   $0x0,(%rax)
    48e4:	4c 8b 0d 85 21 01 00 	mov    0x12185(%rip),%r9        # 16a70 <tprefix>
    48eb:	4c 89 e7             	mov    %r12,%rdi
    48ee:	49 89 e8             	mov    %rbp,%r8
    48f1:	be 02 00 00 00       	mov    $0x2,%esi
    48f6:	48 89 d9             	mov    %rbx,%rcx
    48f9:	ba 00 02 00 00       	mov    $0x200,%edx
    48fe:	31 c0                	xor    %eax,%eax
    4900:	e8 8b dc ff ff       	call   2590 <_init+0x590>
    4905:	41 c6 06 2e          	movb   $0x2e,(%r14)
    4909:	4c 89 ee             	mov    %r13,%rsi
    490c:	4c 89 e7             	mov    %r12,%rdi
    490f:	e8 dc db ff ff       	call   24f0 <_init+0x4f0>
    4914:	48 85 c0             	test   %rax,%rax
    4917:	0f 85 9c fb ff ff    	jne    44b9 <findtrail+0x49>
    491d:	bf 02 00 00 00       	mov    $0x2,%edi
    4922:	4c 89 e2             	mov    %r12,%rdx
    4925:	48 8d 35 bc cb 00 00 	lea    0xcbbc(%rip),%rsi        # 114e8 <CSWTCH.1491+0x1190>
    492c:	31 c0                	xor    %eax,%eax
    492e:	e8 7d db ff ff       	call   24b0 <_init+0x4b0>
    4933:	bf 01 00 00 00       	mov    $0x1,%edi
    4938:	e8 f3 fa ff ff       	call   4430 <pan_exit>
    493d:	0f 1f 00             	nopl   (%rax)
    4940:	48 8d 3d 50 bb 00 00 	lea    0xbb50(%rip),%rdi        # 10497 <CSWTCH.1491+0x13f>
    4947:	e8 14 da ff ff       	call   2360 <_init+0x360>
    494c:	bf 01 00 00 00       	mov    $0x1,%edi
    4951:	e8 da db ff ff       	call   2530 <_init+0x530>
    4956:	be 2e 00 00 00       	mov    $0x2e,%esi
    495b:	48 89 ef             	mov    %rbp,%rdi
    495e:	e8 4d da ff ff       	call   23b0 <_init+0x3b0>
    4963:	48 85 c0             	test   %rax,%rax
    4966:	0f 85 96 00 00 00    	jne    4a02 <findtrail+0x592>
    496c:	ba 10 00 00 00       	mov    $0x10,%edx
    4971:	41 b8 01 00 00 00    	mov    $0x1,%r8d
    4977:	4c 89 ff             	mov    %r15,%rdi
    497a:	31 c0                	xor    %eax,%eax
    497c:	48 8d 0d 08 bb 00 00 	lea    0xbb08(%rip),%rcx        # 1048b <CSWTCH.1491+0x133>
    4983:	be 02 00 00 00       	mov    $0x2,%esi
    4988:	4c 89 3d e1 20 01 00 	mov    %r15,0x120e1(%rip)        # 16a70 <tprefix>
    498f:	e8 fc db ff ff       	call   2590 <_init+0x590>
    4994:	31 d2                	xor    %edx,%edx
    4996:	e9 84 fc ff ff       	jmp    461f <findtrail+0x1af>
    499b:	be 2e 00 00 00       	mov    $0x2e,%esi
    49a0:	48 89 ef             	mov    %rbp,%rdi
    49a3:	e8 08 da ff ff       	call   23b0 <_init+0x3b0>
    49a8:	48 89 c3             	mov    %rax,%rbx
    49ab:	48 85 c0             	test   %rax,%rax
    49ae:	74 bc                	je     496c <findtrail+0x4fc>
    49b0:	c6 00 00             	movb   $0x0,(%rax)
    49b3:	44 8b 0d 8a 61 01 00 	mov    0x1618a(%rip),%r9d        # 1ab44 <whichtrail>
    49ba:	49 89 e8             	mov    %rbp,%r8
    49bd:	4c 89 e7             	mov    %r12,%rdi
    49c0:	51                   	push   %rcx
    49c1:	ba 00 02 00 00       	mov    $0x200,%edx
    49c6:	48 8d 0d 50 ba 00 00 	lea    0xba50(%rip),%rcx        # 1041d <CSWTCH.1491+0xc5>
    49cd:	31 c0                	xor    %eax,%eax
    49cf:	ff 35 9b 20 01 00    	push   0x1209b(%rip)        # 16a70 <tprefix>
    49d5:	be 02 00 00 00       	mov    $0x2,%esi
    49da:	e8 b1 db ff ff       	call   2590 <_init+0x590>
    49df:	c6 03 2e             	movb   $0x2e,(%rbx)
    49e2:	4c 89 ee             	mov    %r13,%rsi
    49e5:	4c 89 e7             	mov    %r12,%rdi
    49e8:	31 db                	xor    %ebx,%ebx
    49ea:	e8 01 db ff ff       	call   24f0 <_init+0x4f0>
    49ef:	5e                   	pop    %rsi
    49f0:	5f                   	pop    %rdi
    49f1:	49 89 c0             	mov    %rax,%r8
    49f4:	48 85 c0             	test   %rax,%rax
    49f7:	0f 85 d4 fb ff ff    	jne    45d1 <findtrail+0x161>
    49fd:	e9 6a ff ff ff       	jmp    496c <findtrail+0x4fc>
    4a02:	c6 00 00             	movb   $0x0,(%rax)
    4a05:	4c 8b 0d 64 20 01 00 	mov    0x12064(%rip),%r9        # 16a70 <tprefix>
    4a0c:	49 89 e8             	mov    %rbp,%r8
    4a0f:	4c 89 e7             	mov    %r12,%rdi
    4a12:	48 89 44 24 08       	mov    %rax,0x8(%rsp)
    4a17:	48 8d 0d 07 ba 00 00 	lea    0xba07(%rip),%rcx        # 10425 <CSWTCH.1491+0xcd>
    4a1e:	ba 00 02 00 00       	mov    $0x200,%edx
    4a23:	31 c0                	xor    %eax,%eax
    4a25:	be 02 00 00 00       	mov    $0x2,%esi
    4a2a:	e8 61 db ff ff       	call   2590 <_init+0x590>
    4a2f:	4c 8b 54 24 08       	mov    0x8(%rsp),%r10
    4a34:	4c 89 ee             	mov    %r13,%rsi
    4a37:	4c 89 e7             	mov    %r12,%rdi
    4a3a:	41 c6 02 2e          	movb   $0x2e,(%r10)
    4a3e:	e8 ad da ff ff       	call   24f0 <_init+0x4f0>
    4a43:	49 89 c0             	mov    %rax,%r8
    4a46:	48 85 c0             	test   %rax,%rax
    4a49:	0f 85 82 fb ff ff    	jne    45d1 <findtrail+0x161>
    4a4f:	e9 18 ff ff ff       	jmp    496c <findtrail+0x4fc>
    4a54:	e8 47 d9 ff ff       	call   23a0 <_init+0x3a0>
    4a59:	48 8b 15 90 6a 01 00 	mov    0x16a90(%rip),%rdx        # 1b4f0 <trailfilename>
    4a60:	bf 02 00 00 00       	mov    $0x2,%edi
    4a65:	48 8d 35 fd b9 00 00 	lea    0xb9fd(%rip),%rsi        # 10469 <CSWTCH.1491+0x111>
    4a6c:	e8 3f da ff ff       	call   24b0 <_init+0x4b0>
    4a71:	bf 01 00 00 00       	mov    $0x1,%edi
    4a76:	e8 b5 f9 ff ff       	call   4430 <pan_exit>
    4a7b:	0f 1f 44 00 00       	nopl   0x0(%rax,%rax,1)

0000000000004a80 <Pptr>:
    4a80:	f3 0f 1e fa          	endbr64 
    4a84:	81 ff fe 00 00 00    	cmp    $0xfe,%edi
    4a8a:	77 14                	ja     4aa0 <Pptr+0x20>
    4a8c:	48 8b 05 fd 1f 01 00 	mov    0x11ffd(%rip),%rax        # 16a90 <proc_offset>
    4a93:	48 63 ff             	movslq %edi,%rdi
    4a96:	48 0f bf 04 78       	movswq (%rax,%rdi,2),%rax
    4a9b:	66 85 c0             	test   %ax,%ax
    4a9e:	75 10                	jne    4ab0 <Pptr+0x30>
    4aa0:	48 8b 05 31 5f 01 00 	mov    0x15f31(%rip),%rax        # 1a9d8 <noptr>
    4aa7:	c3                   	ret    
    4aa8:	0f 1f 84 00 00 00 00 	nopl   0x0(%rax,%rax,1)
    4aaf:	00 
    4ab0:	48 8d 15 09 62 01 00 	lea    0x16209(%rip),%rdx        # 1acc0 <now>
    4ab7:	48 01 d0             	add    %rdx,%rax
    4aba:	c3                   	ret    
    4abb:	0f 1f 44 00 00       	nopl   0x0(%rax,%rax,1)

0000000000004ac0 <Qptr>:
    4ac0:	f3 0f 1e fa          	endbr64 
    4ac4:	81 ff fe 00 00 00    	cmp    $0xfe,%edi
    4aca:	77 14                	ja     4ae0 <Qptr+0x20>
    4acc:	48 8b 05 b5 1f 01 00 	mov    0x11fb5(%rip),%rax        # 16a88 <q_offset>
    4ad3:	48 63 ff             	movslq %edi,%rdi
    4ad6:	48 0f bf 04 78       	movswq (%rax,%rdi,2),%rax
    4adb:	66 85 c0             	test   %ax,%ax
    4ade:	75 10                	jne    4af0 <Qptr+0x30>
    4ae0:	48 8b 05 e9 5e 01 00 	mov    0x15ee9(%rip),%rax        # 1a9d0 <noqptr>
    4ae7:	c3                   	ret    
    4ae8:	0f 1f 84 00 00 00 00 	nopl   0x0(%rax,%rax,1)
    4aef:	00 
    4af0:	48 8d 15 c9 61 01 00 	lea    0x161c9(%rip),%rdx        # 1acc0 <now>
    4af7:	48 01 d0             	add    %rdx,%rax
    4afa:	c3                   	ret    
    4afb:	0f 1f 44 00 00       	nopl   0x0(%rax,%rax,1)

0000000000004b00 <select_claim>:
    4b00:	f3 0f 1e fa          	endbr64 
    4b04:	85 ff                	test   %edi,%edi
    4b06:	74 10                	je     4b18 <select_claim+0x18>
    4b08:	48 8d 3d a5 b9 00 00 	lea    0xb9a5(%rip),%rdi        # 104b4 <CSWTCH.1491+0x15c>
    4b0f:	ff 25 4b 56 01 00    	jmp    *0x1564b(%rip)        # 1a160 <uerror>
    4b15:	0f 1f 00             	nopl   (%rax)
    4b18:	c3                   	ret    
    4b19:	0f 1f 80 00 00 00 00 	nopl   0x0(%rax)

0000000000004b20 <spin_assert>:
    4b20:	f3 0f 1e fa          	endbr64 
    4b24:	85 ff                	test   %edi,%edi
    4b26:	75 09                	jne    4b31 <spin_assert+0x11>
    4b28:	80 3d 3b 56 01 00 00 	cmpb   $0x0,0x1563b(%rip)        # 1a16a <noasserts>
    4b2f:	74 07                	je     4b38 <spin_assert+0x18>
    4b31:	c3                   	ret    
    4b32:	66 0f 1f 44 00 00    	nopw   0x0(%rax,%rax,1)
    4b38:	48 89 f7             	mov    %rsi,%rdi
    4b3b:	e9 d0 e8 ff ff       	jmp    3410 <spin_assert.part.0>

0000000000004b40 <Boundcheck>:
    4b40:	f3 0f 1e fa          	endbr64 
    4b44:	89 f8                	mov    %edi,%eax
    4b46:	85 ff                	test   %edi,%edi
    4b48:	78 06                	js     4b50 <Boundcheck+0x10>
    4b4a:	39 f7                	cmp    %esi,%edi
    4b4c:	7d 02                	jge    4b50 <Boundcheck+0x10>
    4b4e:	c3                   	ret    
    4b4f:	90                   	nop
    4b50:	80 3d 13 56 01 00 00 	cmpb   $0x0,0x15613(%rip)        # 1a16a <noasserts>
    4b57:	75 f5                	jne    4b4e <Boundcheck+0xe>
    4b59:	48 83 ec 18          	sub    $0x18,%rsp
    4b5d:	48 8d 3d 63 b9 00 00 	lea    0xb963(%rip),%rdi        # 104c7 <CSWTCH.1491+0x16f>
    4b64:	89 44 24 0c          	mov    %eax,0xc(%rsp)
    4b68:	e8 a3 e8 ff ff       	call   3410 <spin_assert.part.0>
    4b6d:	8b 44 24 0c          	mov    0xc(%rsp),%eax
    4b71:	48 83 c4 18          	add    $0x18,%rsp
    4b75:	c3                   	ret    
    4b76:	66 2e 0f 1f 84 00 00 	cs nopw 0x0(%rax,%rax,1)
    4b7d:	00 00 00 

0000000000004b80 <wrap_stats>:
    4b80:	f3 0f 1e fa          	endbr64 
    4b84:	48 83 ec 08          	sub    $0x8,%rsp
    4b88:	f2 0f 10 05 40 60 01 	movsd  0x16040(%rip),%xmm0        # 1abd0 <nShadow>
    4b8f:	00 
    4b90:	66 0f ef d2          	pxor   %xmm2,%xmm2
    4b94:	f2 0f 10 0d 5c 60 01 	movsd  0x1605c(%rip),%xmm1        # 1abf8 <nstates>
    4b9b:	00 
    4b9c:	66 0f 2f c2          	comisd %xmm2,%xmm0
    4ba0:	0f 86 da 00 00 00    	jbe    4c80 <wrap_stats+0x100>
    4ba6:	66 0f 28 d1          	movapd %xmm1,%xmm2
    4baa:	bf 02 00 00 00       	mov    $0x2,%edi
    4baf:	b8 02 00 00 00       	mov    $0x2,%eax
    4bb4:	f2 0f 5c d0          	subsd  %xmm0,%xmm2
    4bb8:	48 8d 35 49 c9 00 00 	lea    0xc949(%rip),%rsi        # 11508 <CSWTCH.1491+0x11b0>
    4bbf:	66 0f 28 c2          	movapd %xmm2,%xmm0
    4bc3:	e8 e8 d8 ff ff       	call   24b0 <_init+0x4b0>
    4bc8:	f2 0f 10 05 18 60 01 	movsd  0x16018(%rip),%xmm0        # 1abe8 <truncs>
    4bcf:	00 
    4bd0:	bf 02 00 00 00       	mov    $0x2,%edi
    4bd5:	b8 01 00 00 00       	mov    $0x1,%eax
    4bda:	48 8d 35 12 b9 00 00 	lea    0xb912(%rip),%rsi        # 104f3 <CSWTCH.1491+0x19b>
    4be1:	e8 ca d8 ff ff       	call   24b0 <_init+0x4b0>
    4be6:	f2 0f 10 0d e2 5f 01 	movsd  0x15fe2(%rip),%xmm1        # 1abd0 <nShadow>
    4bed:	00 
    4bee:	66 0f ef c0          	pxor   %xmm0,%xmm0
    4bf2:	66 0f 2f c8          	comisd %xmm0,%xmm1
    4bf6:	f2 0f 10 05 fa 5f 01 	movsd  0x15ffa(%rip),%xmm0        # 1abf8 <nstates>
    4bfd:	00 
    4bfe:	f2 0f 58 05 e2 5f 01 	addsd  0x15fe2(%rip),%xmm0        # 1abe8 <truncs>
    4c05:	00 
    4c06:	0f 86 94 00 00 00    	jbe    4ca0 <wrap_stats+0x120>
    4c0c:	48 8d 35 1d c9 00 00 	lea    0xc91d(%rip),%rsi        # 11530 <CSWTCH.1491+0x11d8>
    4c13:	bf 02 00 00 00       	mov    $0x2,%edi
    4c18:	b8 01 00 00 00       	mov    $0x1,%eax
    4c1d:	e8 8e d8 ff ff       	call   24b0 <_init+0x4b0>
    4c22:	f2 0f 10 05 c6 5f 01 	movsd  0x15fc6(%rip),%xmm0        # 1abf0 <nlinks>
    4c29:	00 
    4c2a:	bf 02 00 00 00       	mov    $0x2,%edi
    4c2f:	b8 01 00 00 00       	mov    $0x1,%eax
    4c34:	48 8d 35 cf b8 00 00 	lea    0xb8cf(%rip),%rsi        # 1050a <CSWTCH.1491+0x1b2>
    4c3b:	e8 70 d8 ff ff       	call   24b0 <_init+0x4b0>
    4c40:	f2 0f 10 05 90 5f 01 	movsd  0x15f90(%rip),%xmm0        # 1abd8 <nlost>
    4c47:	00 
    4c48:	66 0f ef c9          	pxor   %xmm1,%xmm1
    4c4c:	66 0f 2e c1          	ucomisd %xmm1,%xmm0
    4c50:	7a 6e                	jp     4cc0 <wrap_stats+0x140>
    4c52:	75 6c                	jne    4cc0 <wrap_stats+0x140>
    4c54:	f2 0f 10 05 6c 5f 01 	movsd  0x15f6c(%rip),%xmm0        # 1abc8 <hcmp>
    4c5b:	00 
    4c5c:	48 8d 35 1d c9 00 00 	lea    0xc91d(%rip),%rsi        # 11580 <CSWTCH.1491+0x1228>
    4c63:	bf 02 00 00 00       	mov    $0x2,%edi
    4c68:	b8 01 00 00 00       	mov    $0x1,%eax
    4c6d:	48 83 c4 08          	add    $0x8,%rsp
    4c71:	e9 3a d8 ff ff       	jmp    24b0 <_init+0x4b0>
    4c76:	66 2e 0f 1f 84 00 00 	cs nopw 0x0(%rax,%rax,1)
    4c7d:	00 00 00 
    4c80:	66 0f 28 c1          	movapd %xmm1,%xmm0
    4c84:	bf 02 00 00 00       	mov    $0x2,%edi
    4c89:	b8 01 00 00 00       	mov    $0x1,%eax
    4c8e:	48 8d 35 48 b8 00 00 	lea    0xb848(%rip),%rsi        # 104dd <CSWTCH.1491+0x185>
    4c95:	e8 16 d8 ff ff       	call   24b0 <_init+0x4b0>
    4c9a:	e9 29 ff ff ff       	jmp    4bc8 <wrap_stats+0x48>
    4c9f:	90                   	nop
    4ca0:	48 8d 35 b1 c8 00 00 	lea    0xc8b1(%rip),%rsi        # 11558 <CSWTCH.1491+0x1200>
    4ca7:	bf 02 00 00 00       	mov    $0x2,%edi
    4cac:	b8 01 00 00 00       	mov    $0x1,%eax
    4cb1:	e8 fa d7 ff ff       	call   24b0 <_init+0x4b0>
    4cb6:	e9 67 ff ff ff       	jmp    4c22 <wrap_stats+0xa2>
    4cbb:	0f 1f 44 00 00       	nopl   0x0(%rax,%rax,1)
    4cc0:	48 8d 35 57 b8 00 00 	lea    0xb857(%rip),%rsi        # 1051e <CSWTCH.1491+0x1c6>
    4cc7:	bf 02 00 00 00       	mov    $0x2,%edi
    4ccc:	b8 01 00 00 00       	mov    $0x1,%eax
    4cd1:	e8 da d7 ff ff       	call   24b0 <_init+0x4b0>
    4cd6:	e9 79 ff ff ff       	jmp    4c54 <wrap_stats+0xd4>
    4cdb:	0f 1f 44 00 00       	nopl   0x0(%rax,%rax,1)

0000000000004ce0 <s_hash>:
    4ce0:	f3 0f 1e fa          	endbr64 
    4ce4:	48 83 ec 08          	sub    $0x8,%rsp
    4ce8:	ff 15 62 54 01 00    	call   *0x15462(%rip)        # 1a150 <hasher>
    4cee:	83 3d 63 14 01 00 3f 	cmpl   $0x3f,0x11463(%rip)        # 16158 <ssize>
    4cf5:	48 8b 05 84 54 01 00 	mov    0x15484(%rip),%rax        # 1a180 <K1>
    4cfc:	7f 07                	jg     4d05 <s_hash+0x25>
    4cfe:	48 23 05 fb 5c 01 00 	and    0x15cfb(%rip),%rax        # 1aa00 <mask>
    4d05:	48 89 05 44 8a 01 00 	mov    %rax,0x18a44(%rip)        # 1d750 <j1_spin>
    4d0c:	48 83 c4 08          	add    $0x8,%rsp
    4d10:	c3                   	ret    
    4d11:	66 66 2e 0f 1f 84 00 	data16 cs nopw 0x0(%rax,%rax,1)
    4d18:	00 00 00 00 
    4d1c:	0f 1f 40 00          	nopl   0x0(%rax)

0000000000004d20 <set_masks>:
    4d20:	f3 0f 1e fa          	endbr64 
    4d24:	8b 0d 2e 14 01 00    	mov    0x1142e(%rip),%ecx        # 16158 <ssize>
    4d2a:	b8 01 00 00 00       	mov    $0x1,%eax
    4d2f:	48 d3 e0             	shl    %cl,%rax
    4d32:	48 83 e8 01          	sub    $0x1,%rax
    4d36:	48 89 05 c3 5c 01 00 	mov    %rax,0x15cc3(%rip)        # 1aa00 <mask>
    4d3d:	48 89 05 b4 5c 01 00 	mov    %rax,0x15cb4(%rip)        # 1a9f8 <nmask>
    4d44:	c3                   	ret    
    4d45:	66 66 2e 0f 1f 84 00 	data16 cs nopw 0x0(%rax,%rax,1)
    4d4c:	00 00 00 00 

0000000000004d50 <reverse_capture>:
    4d50:	f3 0f 1e fa          	endbr64 
    4d54:	48 85 ff             	test   %rdi,%rdi
    4d57:	74 57                	je     4db0 <reverse_capture+0x60>
    4d59:	48 83 ec 08          	sub    $0x8,%rsp
    4d5d:	48 89 f9             	mov    %rdi,%rcx
    4d60:	48 8b 3f             	mov    (%rdi),%rdi
    4d63:	48 85 ff             	test   %rdi,%rdi
    4d66:	74 05                	je     4d6d <reverse_capture+0x1d>
    4d68:	e8 d3 eb ff ff       	call   3940 <reverse_capture.part.0>
    4d6d:	48 8b 41 10          	mov    0x10(%rcx),%rax
    4d71:	83 3d e0 13 01 00 3f 	cmpl   $0x3f,0x113e0(%rip)        # 16158 <ssize>
    4d78:	48 89 05 c9 89 01 00 	mov    %rax,0x189c9(%rip)        # 1d748 <j2_spin>
    4d7f:	7f 0e                	jg     4d8f <reverse_capture+0x3f>
    4d81:	48 23 05 78 5c 01 00 	and    0x15c78(%rip),%rax        # 1aa00 <mask>
    4d88:	48 89 05 b9 89 01 00 	mov    %rax,0x189b9(%rip)        # 1d748 <j2_spin>
    4d8f:	48 8b 15 7a 79 01 00 	mov    0x1797a(%rip),%rdx        # 1c710 <N_tab>
    4d96:	48 8d 04 c2          	lea    (%rdx,%rax,8),%rax
    4d9a:	48 8b 10             	mov    (%rax),%rdx
    4d9d:	48 89 11             	mov    %rdx,(%rcx)
    4da0:	48 89 08             	mov    %rcx,(%rax)
    4da3:	48 83 c4 08          	add    $0x8,%rsp
    4da7:	c3                   	ret    
    4da8:	0f 1f 84 00 00 00 00 	nopl   0x0(%rax,%rax,1)
    4daf:	00 
    4db0:	c3                   	ret    
    4db1:	66 66 2e 0f 1f 84 00 	data16 cs nopw 0x0(%rax,%rax,1)
    4db8:	00 00 00 00 
    4dbc:	0f 1f 40 00          	nopl   0x0(%rax)

0000000000004dc0 <mul>:
    4dc0:	f3 0f 1e fa          	endbr64 
    4dc4:	31 c0                	xor    %eax,%eax
    4dc6:	85 ff                	test   %edi,%edi
    4dc8:	74 26                	je     4df0 <mul+0x30>
    4dca:	66 0f 1f 44 00 00    	nopw   0x0(%rax,%rax,1)
    4dd0:	41 89 f0             	mov    %esi,%r8d
    4dd3:	40 f6 c7 01          	test   $0x1,%dil
    4dd7:	74 05                	je     4dde <mul+0x1e>
    4dd9:	83 f7 01             	xor    $0x1,%edi
    4ddc:	31 f0                	xor    %esi,%eax
    4dde:	01 f6                	add    %esi,%esi
    4de0:	89 f1                	mov    %esi,%ecx
    4de2:	31 d1                	xor    %edx,%ecx
    4de4:	45 85 c0             	test   %r8d,%r8d
    4de7:	0f 48 f1             	cmovs  %ecx,%esi
    4dea:	d1 ef                	shr    %edi
    4dec:	75 e2                	jne    4dd0 <mul+0x10>
    4dee:	c3                   	ret    
    4def:	90                   	nop
    4df0:	c3                   	ret    
    4df1:	66 66 2e 0f 1f 84 00 	data16 cs nopw 0x0(%rax,%rax,1)
    4df8:	00 00 00 00 
    4dfc:	0f 1f 40 00          	nopl   0x0(%rax)

0000000000004e00 <ppow>:
    4e00:	f3 0f 1e fa          	endbr64 
    4e04:	45 31 c9             	xor    %r9d,%r9d
    4e07:	ba 01 00 00 00       	mov    $0x1,%edx
    4e0c:	4c 8d 1d ed 42 01 00 	lea    0x142ed(%rip),%r11        # 19100 <pp>
    4e13:	eb 0d                	jmp    4e22 <ppow+0x22>
    4e15:	0f 1f 00             	nopl   (%rax)
    4e18:	49 83 c1 01          	add    $0x1,%r9
    4e1c:	49 83 f9 20          	cmp    $0x20,%r9
    4e20:	74 41                	je     4e63 <ppow+0x63>
    4e22:	44 0f a3 cf          	bt     %r9d,%edi
    4e26:	73 f0                	jae    4e18 <ppow+0x18>
    4e28:	43 8b 04 8b          	mov    (%r11,%r9,4),%eax
    4e2c:	85 d2                	test   %edx,%edx
    4e2e:	74 e8                	je     4e18 <ppow+0x18>
    4e30:	45 31 d2             	xor    %r10d,%r10d
    4e33:	0f 1f 44 00 00       	nopl   0x0(%rax,%rax,1)
    4e38:	41 89 c0             	mov    %eax,%r8d
    4e3b:	f6 c2 01             	test   $0x1,%dl
    4e3e:	74 06                	je     4e46 <ppow+0x46>
    4e40:	83 f2 01             	xor    $0x1,%edx
    4e43:	41 31 c2             	xor    %eax,%r10d
    4e46:	01 c0                	add    %eax,%eax
    4e48:	89 c1                	mov    %eax,%ecx
    4e4a:	31 f1                	xor    %esi,%ecx
    4e4c:	45 85 c0             	test   %r8d,%r8d
    4e4f:	0f 48 c1             	cmovs  %ecx,%eax
    4e52:	d1 ea                	shr    %edx
    4e54:	75 e2                	jne    4e38 <ppow+0x38>
    4e56:	49 83 c1 01          	add    $0x1,%r9
    4e5a:	44 89 d2             	mov    %r10d,%edx
    4e5d:	49 83 f9 20          	cmp    $0x20,%r9
    4e61:	75 bf                	jne    4e22 <ppow+0x22>
    4e63:	89 d0                	mov    %edx,%eax
    4e65:	c3                   	ret    
    4e66:	66 2e 0f 1f 84 00 00 	cs nopw 0x0(%rax,%rax,1)
    4e6d:	00 00 00 

0000000000004e70 <hashgen>:
    4e70:	f3 0f 1e fa          	endbr64 
    4e74:	41 56                	push   %r14
    4e76:	41 55                	push   %r13
    4e78:	45 31 ed             	xor    %r13d,%r13d
    4e7b:	41 54                	push   %r12
    4e7d:	4c 8d 25 7c 42 01 00 	lea    0x1427c(%rip),%r12        # 19100 <pp>
    4e84:	55                   	push   %rbp
    4e85:	49 8d ac 24 80 00 00 	lea    0x80(%r12),%rbp
    4e8c:	00 
    4e8d:	53                   	push   %rbx
    4e8e:	48 83 ec 20          	sub    $0x20,%rsp
    4e92:	8b 3d b0 12 01 00    	mov    0x112b0(%rip),%edi        # 16148 <s_rand>
    4e98:	64 48 8b 04 25 28 00 	mov    %fs:0x28,%rax
    4e9f:	00 00 
    4ea1:	48 89 44 24 18       	mov    %rax,0x18(%rsp)
    4ea6:	31 c0                	xor    %eax,%eax
    4ea8:	48 8d 5c 24 14       	lea    0x14(%rsp),%rbx
    4ead:	e8 3e d5 ff ff       	call   23f0 <_init+0x3f0>
    4eb2:	66 0f 6f 05 26 db 00 	movdqa 0xdb26(%rip),%xmm0        # 129e0 <CSWTCH.1491+0x2688>
    4eb9:	00 
    4eba:	c7 44 24 10 ff ff 00 	movl   $0xffff,0x10(%rsp)
    4ec1:	00 
    4ec2:	0f 29 04 24          	movaps %xmm0,(%rsp)
    4ec6:	e8 a5 d6 ff ff       	call   2570 <_init+0x570>
    4ecb:	41 89 c6             	mov    %eax,%r14d
    4ece:	e8 9d d6 ff ff       	call   2570 <_init+0x570>
    4ed3:	41 c1 e6 0d          	shl    $0xd,%r14d
    4ed7:	4c 8d 0d 22 42 01 00 	lea    0x14222(%rip),%r9        # 19100 <pp>
    4ede:	c7 05 18 42 01 00 02 	movl   $0x2,0x14218(%rip)        # 19100 <pp>
    4ee5:	00 00 00 
    4ee8:	41 31 c6             	xor    %eax,%r14d
    4eeb:	41 83 ce 01          	or     $0x1,%r14d
    4eef:	90                   	nop
    4ef0:	41 8b 11             	mov    (%r9),%edx
    4ef3:	85 d2                	test   %edx,%edx
    4ef5:	74 29                	je     4f20 <hashgen+0xb0>
    4ef7:	89 d0                	mov    %edx,%eax
    4ef9:	45 31 c0             	xor    %r8d,%r8d
    4efc:	0f 1f 40 00          	nopl   0x0(%rax)
    4f00:	89 c6                	mov    %eax,%esi
    4f02:	f6 c2 01             	test   $0x1,%dl
    4f05:	74 06                	je     4f0d <hashgen+0x9d>
    4f07:	83 f2 01             	xor    $0x1,%edx
    4f0a:	41 31 c0             	xor    %eax,%r8d
    4f0d:	01 c0                	add    %eax,%eax
    4f0f:	89 c1                	mov    %eax,%ecx
    4f11:	44 31 f1             	xor    %r14d,%ecx
    4f14:	85 f6                	test   %esi,%esi
    4f16:	0f 48 c1             	cmovs  %ecx,%eax
    4f19:	d1 ea                	shr    %edx
    4f1b:	75 e3                	jne    4f00 <hashgen+0x90>
    4f1d:	44 89 c2             	mov    %r8d,%edx
    4f20:	41 89 51 04          	mov    %edx,0x4(%r9)
    4f24:	49 83 c1 04          	add    $0x4,%r9
    4f28:	4c 39 cd             	cmp    %r9,%rbp
    4f2b:	75 c3                	jne    4ef0 <hashgen+0x80>
    4f2d:	83 3d 4c 42 01 00 02 	cmpl   $0x2,0x1424c(%rip)        # 19180 <pp+0x80>
    4f34:	74 53                	je     4f89 <hashgen+0x119>
    4f36:	41 83 c5 01          	add    $0x1,%r13d
    4f3a:	41 81 fd 88 13 00 00 	cmp    $0x1388,%r13d
    4f41:	75 83                	jne    4ec6 <hashgen+0x56>
    4f43:	48 8b 3d 06 5d 01 00 	mov    0x15d06(%rip),%rdi        # 1ac50 <efd>
    4f4a:	b9 88 13 00 00       	mov    $0x1388,%ecx
    4f4f:	48 8d 15 72 c6 00 00 	lea    0xc672(%rip),%rdx        # 115c8 <CSWTCH.1491+0x1270>
    4f56:	31 c0                	xor    %eax,%eax
    4f58:	be 02 00 00 00       	mov    $0x2,%esi
    4f5d:	e8 ee d5 ff ff       	call   2550 <_init+0x550>
    4f62:	ba 24 00 00 00       	mov    $0x24,%edx
    4f67:	be 01 00 00 00       	mov    $0x1,%esi
    4f6c:	48 8b 0d dd 5c 01 00 	mov    0x15cdd(%rip),%rcx        # 1ac50 <efd>
    4f73:	48 8d 3d 7e c6 00 00 	lea    0xc67e(%rip),%rdi        # 115f8 <CSWTCH.1491+0x12a0>
    4f7a:	e8 c1 d5 ff ff       	call   2540 <_init+0x540>
    4f7f:	bf 01 00 00 00       	mov    $0x1,%edi
    4f84:	e8 a7 d5 ff ff       	call   2530 <_init+0x530>
    4f89:	49 89 e3             	mov    %rsp,%r11
    4f8c:	45 8b 13             	mov    (%r11),%r10d
    4f8f:	45 31 c0             	xor    %r8d,%r8d
    4f92:	ba 01 00 00 00       	mov    $0x1,%edx
    4f97:	eb 11                	jmp    4faa <hashgen+0x13a>
    4f99:	0f 1f 80 00 00 00 00 	nopl   0x0(%rax)
    4fa0:	49 83 c0 01          	add    $0x1,%r8
    4fa4:	49 83 f8 20          	cmp    $0x20,%r8
    4fa8:	74 40                	je     4fea <hashgen+0x17a>
    4faa:	45 0f a3 c2          	bt     %r8d,%r10d
    4fae:	73 f0                	jae    4fa0 <hashgen+0x130>
    4fb0:	43 8b 04 84          	mov    (%r12,%r8,4),%eax
    4fb4:	85 d2                	test   %edx,%edx
    4fb6:	74 e8                	je     4fa0 <hashgen+0x130>
    4fb8:	45 31 c9             	xor    %r9d,%r9d
    4fbb:	0f 1f 44 00 00       	nopl   0x0(%rax,%rax,1)
    4fc0:	89 c6                	mov    %eax,%esi
    4fc2:	f6 c2 01             	test   $0x1,%dl
    4fc5:	74 06                	je     4fcd <hashgen+0x15d>
    4fc7:	83 f2 01             	xor    $0x1,%edx
    4fca:	41 31 c1             	xor    %eax,%r9d
    4fcd:	01 c0                	add    %eax,%eax
    4fcf:	89 c1                	mov    %eax,%ecx
    4fd1:	44 31 f1             	xor    %r14d,%ecx
    4fd4:	85 f6                	test   %esi,%esi
    4fd6:	0f 48 c1             	cmovs  %ecx,%eax
    4fd9:	d1 ea                	shr    %edx
    4fdb:	75 e3                	jne    4fc0 <hashgen+0x150>
    4fdd:	49 83 c0 01          	add    $0x1,%r8
    4fe1:	44 89 ca             	mov    %r9d,%edx
    4fe4:	49 83 f8 20          	cmp    $0x20,%r8
    4fe8:	75 c0                	jne    4faa <hashgen+0x13a>
    4fea:	83 fa 01             	cmp    $0x1,%edx
    4fed:	0f 84 43 ff ff ff    	je     4f36 <hashgen+0xc6>
    4ff3:	49 83 c3 04          	add    $0x4,%r11
    4ff7:	4c 39 db             	cmp    %r11,%rbx
    4ffa:	75 90                	jne    4f8c <hashgen+0x11c>
    4ffc:	8b 05 56 5b 01 00    	mov    0x15b56(%rip),%eax        # 1ab58 <verbose>
    5002:	44 89 35 77 11 01 00 	mov    %r14d,0x11177(%rip)        # 16180 <HASH_CONST>
    5009:	85 c0                	test   %eax,%eax
    500b:	75 1d                	jne    502a <hashgen+0x1ba>
    500d:	48 8b 44 24 18       	mov    0x18(%rsp),%rax
    5012:	64 48 2b 04 25 28 00 	sub    %fs:0x28,%rax
    5019:	00 00 
    501b:	75 42                	jne    505f <hashgen+0x1ef>
    501d:	48 83 c4 20          	add    $0x20,%rsp
    5021:	5b                   	pop    %rbx
    5022:	5d                   	pop    %rbp
    5023:	41 5c                	pop    %r12
    5025:	41 5d                	pop    %r13
    5027:	41 5e                	pop    %r14
    5029:	c3                   	ret    
    502a:	48 8b 44 24 18       	mov    0x18(%rsp),%rax
    502f:	64 48 2b 04 25 28 00 	sub    %fs:0x28,%rax
    5036:	00 00 
    5038:	75 25                	jne    505f <hashgen+0x1ef>
    503a:	48 83 c4 20          	add    $0x20,%rsp
    503e:	44 89 e9             	mov    %r13d,%ecx
    5041:	44 89 f2             	mov    %r14d,%edx
    5044:	bf 02 00 00 00       	mov    $0x2,%edi
    5049:	5b                   	pop    %rbx
    504a:	48 8d 35 57 c5 00 00 	lea    0xc557(%rip),%rsi        # 115a8 <CSWTCH.1491+0x1250>
    5051:	5d                   	pop    %rbp
    5052:	31 c0                	xor    %eax,%eax
    5054:	41 5c                	pop    %r12
    5056:	41 5d                	pop    %r13
    5058:	41 5e                	pop    %r14
    505a:	e9 51 d4 ff ff       	jmp    24b0 <_init+0x4b0>
    505f:	e8 3c d3 ff ff       	call   23a0 <_init+0x3a0>
    5064:	66 66 2e 0f 1f 84 00 	data16 cs nopw 0x0(%rax,%rax,1)
    506b:	00 00 00 00 
    506f:	90                   	nop

0000000000005070 <usage>:
    5070:	f3 0f 1e fa          	endbr64 
    5074:	53                   	push   %rbx
    5075:	48 8d 0d a4 c5 00 00 	lea    0xc5a4(%rip),%rcx        # 11620 <CSWTCH.1491+0x12c8>
    507c:	48 89 fb             	mov    %rdi,%rbx
    507f:	be 02 00 00 00       	mov    $0x2,%esi
    5084:	48 8d 15 5b ba 00 00 	lea    0xba5b(%rip),%rdx        # 10ae6 <CSWTCH.1491+0x78e>
    508b:	31 c0                	xor    %eax,%eax
    508d:	e8 be d4 ff ff       	call   2550 <_init+0x550>
    5092:	48 89 d9             	mov    %rbx,%rcx
    5095:	ba 13 00 00 00       	mov    $0x13,%edx
    509a:	be 01 00 00 00       	mov    $0x1,%esi
    509f:	48 8d 3d 8a b4 00 00 	lea    0xb48a(%rip),%rdi        # 10530 <CSWTCH.1491+0x1d8>
    50a6:	e8 95 d4 ff ff       	call   2540 <_init+0x540>
    50ab:	48 89 d9             	mov    %rbx,%rcx
    50ae:	ba 1c 00 00 00       	mov    $0x1c,%edx
    50b3:	be 01 00 00 00       	mov    $0x1,%esi
    50b8:	48 8d 3d 85 b4 00 00 	lea    0xb485(%rip),%rdi        # 10544 <CSWTCH.1491+0x1ec>
    50bf:	e8 7c d4 ff ff       	call   2540 <_init+0x540>
    50c4:	48 89 d9             	mov    %rbx,%rcx
    50c7:	ba 20 00 00 00       	mov    $0x20,%edx
    50cc:	be 01 00 00 00       	mov    $0x1,%esi
    50d1:	48 8d 3d 70 c5 00 00 	lea    0xc570(%rip),%rdi        # 11648 <CSWTCH.1491+0x12f0>
    50d8:	e8 63 d4 ff ff       	call   2540 <_init+0x540>
    50dd:	48 89 d9             	mov    %rbx,%rcx
    50e0:	ba 34 00 00 00       	mov    $0x34,%edx
    50e5:	be 01 00 00 00       	mov    $0x1,%esi
    50ea:	48 8d 3d 7f c5 00 00 	lea    0xc57f(%rip),%rdi        # 11670 <CSWTCH.1491+0x1318>
    50f1:	e8 4a d4 ff ff       	call   2540 <_init+0x540>
    50f6:	48 89 d9             	mov    %rbx,%rcx
    50f9:	ba 17 00 00 00       	mov    $0x17,%edx
    50fe:	be 01 00 00 00       	mov    $0x1,%esi
    5103:	48 8d 3d 57 b4 00 00 	lea    0xb457(%rip),%rdi        # 10561 <CSWTCH.1491+0x209>
    510a:	e8 31 d4 ff ff       	call   2540 <_init+0x540>
    510f:	48 89 d9             	mov    %rbx,%rcx
    5112:	ba 12 00 00 00       	mov    $0x12,%edx
    5117:	be 01 00 00 00       	mov    $0x1,%esi
    511c:	48 8d 3d 56 b4 00 00 	lea    0xb456(%rip),%rdi        # 10579 <CSWTCH.1491+0x221>
    5123:	e8 18 d4 ff ff       	call   2540 <_init+0x540>
    5128:	48 89 d9             	mov    %rbx,%rcx
    512b:	ba 2f 00 00 00       	mov    $0x2f,%edx
    5130:	be 01 00 00 00       	mov    $0x1,%esi
    5135:	48 8d 3d 6c c5 00 00 	lea    0xc56c(%rip),%rdi        # 116a8 <CSWTCH.1491+0x1350>
    513c:	e8 ff d3 ff ff       	call   2540 <_init+0x540>
    5141:	48 89 d9             	mov    %rbx,%rcx
    5144:	ba 21 00 00 00       	mov    $0x21,%edx
    5149:	be 01 00 00 00       	mov    $0x1,%esi
    514e:	48 8d 3d 83 c5 00 00 	lea    0xc583(%rip),%rdi        # 116d8 <CSWTCH.1491+0x1380>
    5155:	e8 e6 d3 ff ff       	call   2540 <_init+0x540>
    515a:	48 89 d9             	mov    %rbx,%rcx
    515d:	ba 22 00 00 00       	mov    $0x22,%edx
    5162:	be 01 00 00 00       	mov    $0x1,%esi
    5167:	48 8d 3d 92 c5 00 00 	lea    0xc592(%rip),%rdi        # 11700 <CSWTCH.1491+0x13a8>
    516e:	e8 cd d3 ff ff       	call   2540 <_init+0x540>
    5173:	48 89 d9             	mov    %rbx,%rcx
    5176:	ba 1f 00 00 00       	mov    $0x1f,%edx
    517b:	be 01 00 00 00       	mov    $0x1,%esi
    5180:	48 8d 3d a1 c5 00 00 	lea    0xc5a1(%rip),%rdi        # 11728 <CSWTCH.1491+0x13d0>
    5187:	e8 b4 d3 ff ff       	call   2540 <_init+0x540>
    518c:	48 89 d9             	mov    %rbx,%rcx
    518f:	ba 25 00 00 00       	mov    $0x25,%edx
    5194:	be 01 00 00 00       	mov    $0x1,%esi
    5199:	48 8d 3d a8 c5 00 00 	lea    0xc5a8(%rip),%rdi        # 11748 <CSWTCH.1491+0x13f0>
    51a0:	e8 9b d3 ff ff       	call   2540 <_init+0x540>
    51a5:	48 89 d9             	mov    %rbx,%rcx
    51a8:	ba 38 00 00 00       	mov    $0x38,%edx
    51ad:	be 01 00 00 00       	mov    $0x1,%esi
    51b2:	48 8d 3d b7 c5 00 00 	lea    0xc5b7(%rip),%rdi        # 11770 <CSWTCH.1491+0x1418>
    51b9:	e8 82 d3 ff ff       	call   2540 <_init+0x540>
    51be:	48 89 d9             	mov    %rbx,%rcx
    51c1:	ba 43 00 00 00       	mov    $0x43,%edx
    51c6:	be 01 00 00 00       	mov    $0x1,%esi
    51cb:	48 8d 3d de c5 00 00 	lea    0xc5de(%rip),%rdi        # 117b0 <CSWTCH.1491+0x1458>
    51d2:	e8 69 d3 ff ff       	call   2540 <_init+0x540>
    51d7:	8b 0d 6b 0f 01 00    	mov    0x10f6b(%rip),%ecx        # 16148 <s_rand>
    51dd:	48 89 df             	mov    %rbx,%rdi
    51e0:	31 c0                	xor    %eax,%eax
    51e2:	48 8d 15 0f c6 00 00 	lea    0xc60f(%rip),%rdx        # 117f8 <CSWTCH.1491+0x14a0>
    51e9:	be 02 00 00 00       	mov    $0x2,%esi
    51ee:	e8 5d d3 ff ff       	call   2550 <_init+0x550>
    51f3:	48 89 d9             	mov    %rbx,%rcx
    51f6:	ba 27 00 00 00       	mov    $0x27,%edx
    51fb:	be 01 00 00 00       	mov    $0x1,%esi
    5200:	48 8d 3d 21 c6 00 00 	lea    0xc621(%rip),%rdi        # 11828 <CSWTCH.1491+0x14d0>
    5207:	e8 34 d3 ff ff       	call   2540 <_init+0x540>
    520c:	48 89 d9             	mov    %rbx,%rcx
    520f:	ba 29 00 00 00       	mov    $0x29,%edx
    5214:	be 01 00 00 00       	mov    $0x1,%esi
    5219:	48 8d 3d 30 c6 00 00 	lea    0xc630(%rip),%rdi        # 11850 <CSWTCH.1491+0x14f8>
    5220:	e8 1b d3 ff ff       	call   2540 <_init+0x540>
    5225:	48 89 d9             	mov    %rbx,%rcx
    5228:	ba 2b 00 00 00       	mov    $0x2b,%edx
    522d:	be 01 00 00 00       	mov    $0x1,%esi
    5232:	48 8d 3d 47 c6 00 00 	lea    0xc647(%rip),%rdi        # 11880 <CSWTCH.1491+0x1528>
    5239:	e8 02 d3 ff ff       	call   2540 <_init+0x540>
    523e:	48 89 d9             	mov    %rbx,%rcx
    5241:	ba 21 00 00 00       	mov    $0x21,%edx
    5246:	be 01 00 00 00       	mov    $0x1,%esi
    524b:	48 8d 3d 5e c6 00 00 	lea    0xc65e(%rip),%rdi        # 118b0 <CSWTCH.1491+0x1558>
    5252:	e8 e9 d2 ff ff       	call   2540 <_init+0x540>
    5257:	48 89 d9             	mov    %rbx,%rcx
    525a:	ba 13 00 00 00       	mov    $0x13,%edx
    525f:	be 01 00 00 00       	mov    $0x1,%esi
    5264:	48 8d 3d 21 b3 00 00 	lea    0xb321(%rip),%rdi        # 1058c <CSWTCH.1491+0x234>
    526b:	e8 d0 d2 ff ff       	call   2540 <_init+0x540>
    5270:	48 89 d9             	mov    %rbx,%rcx
    5273:	ba 16 00 00 00       	mov    $0x16,%edx
    5278:	be 01 00 00 00       	mov    $0x1,%esi
    527d:	48 8d 3d 1c b3 00 00 	lea    0xb31c(%rip),%rdi        # 105a0 <CSWTCH.1491+0x248>
    5284:	e8 b7 d2 ff ff       	call   2540 <_init+0x540>
    5289:	48 89 d9             	mov    %rbx,%rcx
    528c:	ba 25 00 00 00       	mov    $0x25,%edx
    5291:	be 01 00 00 00       	mov    $0x1,%esi
    5296:	48 8d 3d 3b c6 00 00 	lea    0xc63b(%rip),%rdi        # 118d8 <CSWTCH.1491+0x1580>
    529d:	e8 9e d2 ff ff       	call   2540 <_init+0x540>
    52a2:	48 89 d9             	mov    %rbx,%rcx
    52a5:	ba 24 00 00 00       	mov    $0x24,%edx
    52aa:	be 01 00 00 00       	mov    $0x1,%esi
    52af:	48 8d 3d 4a c6 00 00 	lea    0xc64a(%rip),%rdi        # 11900 <CSWTCH.1491+0x15a8>
    52b6:	e8 85 d2 ff ff       	call   2540 <_init+0x540>
    52bb:	48 89 d9             	mov    %rbx,%rcx
    52be:	ba 2e 00 00 00       	mov    $0x2e,%edx
    52c3:	be 01 00 00 00       	mov    $0x1,%esi
    52c8:	48 8d 3d 59 c6 00 00 	lea    0xc659(%rip),%rdi        # 11928 <CSWTCH.1491+0x15d0>
    52cf:	e8 6c d2 ff ff       	call   2540 <_init+0x540>
    52d4:	48 89 d9             	mov    %rbx,%rcx
    52d7:	ba 2d 00 00 00       	mov    $0x2d,%edx
    52dc:	be 01 00 00 00       	mov    $0x1,%esi
    52e1:	48 8d 3d 70 c6 00 00 	lea    0xc670(%rip),%rdi        # 11958 <CSWTCH.1491+0x1600>
    52e8:	e8 53 d2 ff ff       	call   2540 <_init+0x540>
    52ed:	48 89 d9             	mov    %rbx,%rcx
    52f0:	ba 36 00 00 00       	mov    $0x36,%edx
    52f5:	be 01 00 00 00       	mov    $0x1,%esi
    52fa:	48 8d 3d 87 c6 00 00 	lea    0xc687(%rip),%rdi        # 11988 <CSWTCH.1491+0x1630>
    5301:	e8 3a d2 ff ff       	call   2540 <_init+0x540>
    5306:	48 89 d9             	mov    %rbx,%rcx
    5309:	ba 32 00 00 00       	mov    $0x32,%edx
    530e:	be 01 00 00 00       	mov    $0x1,%esi
    5313:	48 8d 3d a6 c6 00 00 	lea    0xc6a6(%rip),%rdi        # 119c0 <CSWTCH.1491+0x1668>
    531a:	e8 21 d2 ff ff       	call   2540 <_init+0x540>
    531f:	48 89 d9             	mov    %rbx,%rcx
    5322:	ba 27 00 00 00       	mov    $0x27,%edx
    5327:	be 01 00 00 00       	mov    $0x1,%esi
    532c:	48 8d 3d c5 c6 00 00 	lea    0xc6c5(%rip),%rdi        # 119f8 <CSWTCH.1491+0x16a0>
    5333:	e8 08 d2 ff ff       	call   2540 <_init+0x540>
    5338:	48 89 d9             	mov    %rbx,%rcx
    533b:	ba 40 00 00 00       	mov    $0x40,%edx
    5340:	be 01 00 00 00       	mov    $0x1,%esi
    5345:	48 8d 3d d4 c6 00 00 	lea    0xc6d4(%rip),%rdi        # 11a20 <CSWTCH.1491+0x16c8>
    534c:	e8 ef d1 ff ff       	call   2540 <_init+0x540>
    5351:	48 89 d9             	mov    %rbx,%rcx
    5354:	ba 41 00 00 00       	mov    $0x41,%edx
    5359:	be 01 00 00 00       	mov    $0x1,%esi
    535e:	48 8d 3d 03 c7 00 00 	lea    0xc703(%rip),%rdi        # 11a68 <CSWTCH.1491+0x1710>
    5365:	e8 d6 d1 ff ff       	call   2540 <_init+0x540>
    536a:	48 89 d9             	mov    %rbx,%rcx
    536d:	ba 2e 00 00 00       	mov    $0x2e,%edx
    5372:	be 01 00 00 00       	mov    $0x1,%esi
    5377:	48 8d 3d 32 c7 00 00 	lea    0xc732(%rip),%rdi        # 11ab0 <CSWTCH.1491+0x1758>
    537e:	e8 bd d1 ff ff       	call   2540 <_init+0x540>
    5383:	48 89 d9             	mov    %rbx,%rcx
    5386:	ba 33 00 00 00       	mov    $0x33,%edx
    538b:	be 01 00 00 00       	mov    $0x1,%esi
    5390:	48 8d 3d 49 c7 00 00 	lea    0xc749(%rip),%rdi        # 11ae0 <CSWTCH.1491+0x1788>
    5397:	e8 a4 d1 ff ff       	call   2540 <_init+0x540>
    539c:	48 89 d9             	mov    %rbx,%rcx
    539f:	ba 1f 00 00 00       	mov    $0x1f,%edx
    53a4:	be 01 00 00 00       	mov    $0x1,%esi
    53a9:	48 8d 3d 68 c7 00 00 	lea    0xc768(%rip),%rdi        # 11b18 <CSWTCH.1491+0x17c0>
    53b0:	e8 8b d1 ff ff       	call   2540 <_init+0x540>
    53b5:	48 89 d9             	mov    %rbx,%rcx
    53b8:	ba 5c 00 00 00       	mov    $0x5c,%edx
    53bd:	be 01 00 00 00       	mov    $0x1,%esi
    53c2:	48 8d 3d 6f c7 00 00 	lea    0xc76f(%rip),%rdi        # 11b38 <CSWTCH.1491+0x17e0>
    53c9:	e8 72 d1 ff ff       	call   2540 <_init+0x540>
    53ce:	48 89 d9             	mov    %rbx,%rcx
    53d1:	ba 2a 00 00 00       	mov    $0x2a,%edx
    53d6:	be 01 00 00 00       	mov    $0x1,%esi
    53db:	48 8d 3d b6 c7 00 00 	lea    0xc7b6(%rip),%rdi        # 11b98 <CSWTCH.1491+0x1840>
    53e2:	e8 59 d1 ff ff       	call   2540 <_init+0x540>
    53e7:	48 89 d9             	mov    %rbx,%rcx
    53ea:	ba 3d 00 00 00       	mov    $0x3d,%edx
    53ef:	be 01 00 00 00       	mov    $0x1,%esi
    53f4:	48 8d 3d cd c7 00 00 	lea    0xc7cd(%rip),%rdi        # 11bc8 <CSWTCH.1491+0x1870>
    53fb:	e8 40 d1 ff ff       	call   2540 <_init+0x540>
    5400:	48 89 d9             	mov    %rbx,%rcx
    5403:	ba 2e 00 00 00       	mov    $0x2e,%edx
    5408:	be 01 00 00 00       	mov    $0x1,%esi
    540d:	48 8d 3d f4 c7 00 00 	lea    0xc7f4(%rip),%rdi        # 11c08 <CSWTCH.1491+0x18b0>
    5414:	e8 27 d1 ff ff       	call   2540 <_init+0x540>
    5419:	48 89 d9             	mov    %rbx,%rcx
    541c:	ba 1f 00 00 00       	mov    $0x1f,%edx
    5421:	be 01 00 00 00       	mov    $0x1,%esi
    5426:	48 8d 3d 0b c8 00 00 	lea    0xc80b(%rip),%rdi        # 11c38 <CSWTCH.1491+0x18e0>
    542d:	e8 0e d1 ff ff       	call   2540 <_init+0x540>
    5432:	48 89 d9             	mov    %rbx,%rcx
    5435:	ba 35 00 00 00       	mov    $0x35,%edx
    543a:	be 01 00 00 00       	mov    $0x1,%esi
    543f:	48 8d 3d 12 c8 00 00 	lea    0xc812(%rip),%rdi        # 11c58 <CSWTCH.1491+0x1900>
    5446:	e8 f5 d0 ff ff       	call   2540 <_init+0x540>
    544b:	48 89 d9             	mov    %rbx,%rcx
    544e:	ba 1e 00 00 00       	mov    $0x1e,%edx
    5453:	be 01 00 00 00       	mov    $0x1,%esi
    5458:	48 8d 3d 31 c8 00 00 	lea    0xc831(%rip),%rdi        # 11c90 <CSWTCH.1491+0x1938>
    545f:	e8 dc d0 ff ff       	call   2540 <_init+0x540>
    5464:	8b 0d ee 0c 01 00    	mov    0x10cee(%rip),%ecx        # 16158 <ssize>
    546a:	48 89 df             	mov    %rbx,%rdi
    546d:	31 c0                	xor    %eax,%eax
    546f:	48 8d 15 41 b1 00 00 	lea    0xb141(%rip),%rdx        # 105b7 <CSWTCH.1491+0x25f>
    5476:	be 02 00 00 00       	mov    $0x2,%esi
    547b:	e8 d0 d0 ff ff       	call   2550 <_init+0x550>
    5480:	48 89 d9             	mov    %rbx,%rcx
    5483:	ba 2d 00 00 00       	mov    $0x2d,%edx
    5488:	be 01 00 00 00       	mov    $0x1,%esi
    548d:	48 8d 3d 1c c8 00 00 	lea    0xc81c(%rip),%rdi        # 11cb0 <CSWTCH.1491+0x1958>
    5494:	e8 a7 d0 ff ff       	call   2540 <_init+0x540>
    5499:	48 89 d9             	mov    %rbx,%rcx
    549c:	ba 40 00 00 00       	mov    $0x40,%edx
    54a1:	be 01 00 00 00       	mov    $0x1,%esi
    54a6:	48 8d 3d 33 c8 00 00 	lea    0xc833(%rip),%rdi        # 11ce0 <CSWTCH.1491+0x1988>
    54ad:	e8 8e d0 ff ff       	call   2540 <_init+0x540>
    54b2:	48 8d 3d 6f c8 00 00 	lea    0xc86f(%rip),%rdi        # 11d28 <CSWTCH.1491+0x19d0>
    54b9:	48 89 d9             	mov    %rbx,%rcx
    54bc:	ba 40 00 00 00       	mov    $0x40,%edx
    54c1:	be 01 00 00 00       	mov    $0x1,%esi
    54c6:	e8 75 d0 ff ff       	call   2540 <_init+0x540>
    54cb:	bf 01 00 00 00       	mov    $0x1,%edi
    54d0:	e8 5b d0 ff ff       	call   2530 <_init+0x530>
    54d5:	66 66 2e 0f 1f 84 00 	data16 cs nopw 0x0(%rax,%rax,1)
    54dc:	00 00 00 00 

00000000000054e0 <xrefsrc>:
    54e0:	f3 0f 1e fa          	endbr64 
    54e4:	41 57                	push   %r15
    54e6:	48 63 c9             	movslq %ecx,%rcx
    54e9:	41 56                	push   %r14
    54eb:	41 55                	push   %r13
    54ed:	4c 63 ea             	movslq %edx,%r13
    54f0:	41 54                	push   %r12
    54f2:	55                   	push   %rbp
    54f3:	53                   	push   %rbx
    54f4:	48 83 ec 18          	sub    $0x18,%rsp
    54f8:	48 8b 05 41 4c 01 00 	mov    0x14c41(%rip),%rax        # 1a140 <trans>
    54ff:	89 7c 24 04          	mov    %edi,0x4(%rsp)
    5503:	4a 8b 04 e8          	mov    (%rax,%r13,8),%rax
    5507:	48 89 4c 24 08       	mov    %rcx,0x8(%rsp)
    550c:	48 8b 2c c8          	mov    (%rax,%rcx,8),%rbp
    5510:	48 85 ed             	test   %rbp,%rbp
    5513:	0f 84 67 01 00 00    	je     5680 <xrefsrc+0x1a0>
    5519:	49 89 f4             	mov    %rsi,%r12
    551c:	48 89 cb             	mov    %rcx,%rbx
    551f:	b8 01 00 00 00       	mov    $0x1,%eax
    5524:	4c 8d 3d 45 3f 01 00 	lea    0x13f45(%rip),%r15        # 19470 <stopstate>
    552b:	eb 10                	jmp    553d <xrefsrc+0x5d>
    552d:	0f 1f 00             	nopl   (%rax)
    5530:	48 8b 6d 30          	mov    0x30(%rbp),%rbp
    5534:	48 85 ed             	test   %rbp,%rbp
    5537:	0f 84 c6 00 00 00    	je     5603 <xrefsrc+0x123>
    553d:	4c 8b 75 18          	mov    0x18(%rbp),%r14
    5541:	4d 85 f6             	test   %r14,%r14
    5544:	74 ea                	je     5530 <xrefsrc+0x50>
    5546:	48 8d 35 7e b0 00 00 	lea    0xb07e(%rip),%rsi        # 105cb <CSWTCH.1491+0x273>
    554d:	4c 89 f7             	mov    %r14,%rdi
    5550:	e8 bb ce ff ff       	call   2410 <_init+0x410>
    5555:	85 c0                	test   %eax,%eax
    5557:	0f 84 23 01 00 00    	je     5680 <xrefsrc+0x1a0>
    555d:	ba 06 00 00 00       	mov    $0x6,%edx
    5562:	48 8d 35 6a b0 00 00 	lea    0xb06a(%rip),%rsi        # 105d3 <CSWTCH.1491+0x27b>
    5569:	4c 89 f7             	mov    %r14,%rdi
    556c:	e8 bf cd ff ff       	call   2330 <_init+0x330>
    5571:	85 c0                	test   %eax,%eax
    5573:	0f 84 07 01 00 00    	je     5680 <xrefsrc+0x1a0>
    5579:	4c 89 e0             	mov    %r12,%rax
    557c:	49 8d 94 24 80 00 00 	lea    0x80(%r12),%rdx
    5583:	00 
    5584:	0f 1f 40 00          	nopl   0x0(%rax)
    5588:	39 58 08             	cmp    %ebx,0x8(%rax)
    558b:	7f 09                	jg     5596 <xrefsrc+0xb6>
    558d:	39 58 0c             	cmp    %ebx,0xc(%rax)
    5590:	0f 8d ca 00 00 00    	jge    5660 <xrefsrc+0x180>
    5596:	48 83 c0 10          	add    $0x10,%rax
    559a:	48 39 d0             	cmp    %rdx,%rax
    559d:	75 e9                	jne    5588 <xrefsrc+0xa8>
    559f:	8b 4c 24 04          	mov    0x4(%rsp),%ecx
    55a3:	48 8d 15 ef ad 00 00 	lea    0xadef(%rip),%rdx        # 10399 <CSWTCH.1491+0x41>
    55aa:	48 8d 35 29 b0 00 00 	lea    0xb029(%rip),%rsi        # 105da <CSWTCH.1491+0x282>
    55b1:	31 c0                	xor    %eax,%eax
    55b3:	bf 02 00 00 00       	mov    $0x2,%edi
    55b8:	e8 f3 ce ff ff       	call   24b0 <_init+0x4b0>
    55bd:	bf 02 00 00 00       	mov    $0x2,%edi
    55c2:	31 c0                	xor    %eax,%eax
    55c4:	48 8d 35 16 b0 00 00 	lea    0xb016(%rip),%rsi        # 105e1 <CSWTCH.1491+0x289>
    55cb:	89 da                	mov    %ebx,%edx
    55cd:	e8 de ce ff ff       	call   24b0 <_init+0x4b0>
    55d2:	48 8b 7d 18          	mov    0x18(%rbp),%rdi
    55d6:	80 3f 00             	cmpb   $0x0,(%rdi)
    55d9:	75 3d                	jne    5618 <xrefsrc+0x138>
    55db:	4b 8b 04 ef          	mov    (%r15,%r13,8),%rax
    55df:	48 8b 4c 24 08       	mov    0x8(%rsp),%rcx
    55e4:	80 3c 08 00          	cmpb   $0x0,(%rax,%rcx,1)
    55e8:	75 5e                	jne    5648 <xrefsrc+0x168>
    55ea:	bf 0a 00 00 00       	mov    $0xa,%edi
    55ef:	e8 0c cd ff ff       	call   2300 <_init+0x300>
    55f4:	48 8b 6d 30          	mov    0x30(%rbp),%rbp
    55f8:	31 c0                	xor    %eax,%eax
    55fa:	48 85 ed             	test   %rbp,%rbp
    55fd:	0f 85 3a ff ff ff    	jne    553d <xrefsrc+0x5d>
    5603:	48 83 c4 18          	add    $0x18,%rsp
    5607:	5b                   	pop    %rbx
    5608:	5d                   	pop    %rbp
    5609:	41 5c                	pop    %r12
    560b:	41 5d                	pop    %r13
    560d:	41 5e                	pop    %r14
    560f:	41 5f                	pop    %r15
    5611:	c3                   	ret    
    5612:	66 0f 1f 44 00 00    	nopw   0x0(%rax,%rax,1)
    5618:	e8 b3 e6 ff ff       	call   3cd0 <transmognify>
    561d:	48 8d 35 c8 af 00 00 	lea    0xafc8(%rip),%rsi        # 105ec <CSWTCH.1491+0x294>
    5624:	bf 02 00 00 00       	mov    $0x2,%edi
    5629:	48 85 c0             	test   %rax,%rax
    562c:	48 89 c2             	mov    %rax,%rdx
    562f:	48 8d 05 e6 ad 00 00 	lea    0xade6(%rip),%rax        # 1041c <CSWTCH.1491+0xc4>
    5636:	48 0f 44 d0          	cmove  %rax,%rdx
    563a:	31 c0                	xor    %eax,%eax
    563c:	e8 6f ce ff ff       	call   24b0 <_init+0x4b0>
    5641:	eb a7                	jmp    55ea <xrefsrc+0x10a>
    5643:	0f 1f 44 00 00       	nopl   0x0(%rax,%rax,1)
    5648:	48 8d 35 a4 af 00 00 	lea    0xafa4(%rip),%rsi        # 105f3 <CSWTCH.1491+0x29b>
    564f:	bf 02 00 00 00       	mov    $0x2,%edi
    5654:	31 c0                	xor    %eax,%eax
    5656:	e8 55 ce ff ff       	call   24b0 <_init+0x4b0>
    565b:	eb 8d                	jmp    55ea <xrefsrc+0x10a>
    565d:	0f 1f 00             	nopl   (%rax)
    5660:	48 8b 10             	mov    (%rax),%rdx
    5663:	8b 4c 24 04          	mov    0x4(%rsp),%ecx
    5667:	bf 02 00 00 00       	mov    $0x2,%edi
    566c:	31 c0                	xor    %eax,%eax
    566e:	48 8d 35 65 af 00 00 	lea    0xaf65(%rip),%rsi        # 105da <CSWTCH.1491+0x282>
    5675:	e8 36 ce ff ff       	call   24b0 <_init+0x4b0>
    567a:	e9 3e ff ff ff       	jmp    55bd <xrefsrc+0xdd>
    567f:	90                   	nop
    5680:	48 83 c4 18          	add    $0x18,%rsp
    5684:	b8 01 00 00 00       	mov    $0x1,%eax
    5689:	5b                   	pop    %rbx
    568a:	5d                   	pop    %rbp
    568b:	41 5c                	pop    %r12
    568d:	41 5d                	pop    %r13
    568f:	41 5e                	pop    %r14
    5691:	41 5f                	pop    %r15
    5693:	c3                   	ret    
    5694:	66 66 2e 0f 1f 84 00 	data16 cs nopw 0x0(%rax,%rax,1)
    569b:	00 00 00 00 
    569f:	90                   	nop

00000000000056a0 <r_ck>:
    56a0:	f3 0f 1e fa          	endbr64 
    56a4:	41 57                	push   %r15
    56a6:	48 8d 05 8b 09 01 00 	lea    0x1098b(%rip),%rax        # 16038 <Btypes>
    56ad:	49 89 ff             	mov    %rdi,%r15
    56b0:	41 56                	push   %r14
    56b2:	41 55                	push   %r13
    56b4:	41 54                	push   %r12
    56b6:	4c 63 e2             	movslq %edx,%r12
    56b9:	55                   	push   %rbp
    56ba:	53                   	push   %rbx
    56bb:	48 83 ec 28          	sub    $0x28,%rsp
    56bf:	42 8b 04 a0          	mov    (%rax,%r12,4),%eax
    56c3:	89 74 24 1c          	mov    %esi,0x1c(%rsp)
    56c7:	89 54 24 18          	mov    %edx,0x18(%rsp)
    56cb:	48 89 4c 24 08       	mov    %rcx,0x8(%rsp)
    56d0:	4c 89 44 24 10       	mov    %r8,0x10(%rsp)
    56d5:	83 f8 01             	cmp    $0x1,%eax
    56d8:	0f 84 ea 00 00 00    	je     57c8 <r_ck+0x128>
    56de:	83 f8 02             	cmp    $0x2,%eax
    56e1:	0f 84 c9 00 00 00    	je     57b0 <r_ck+0x110>
    56e7:	83 e8 03             	sub    $0x3,%eax
    56ea:	83 f8 01             	cmp    $0x1,%eax
    56ed:	48 8d 05 8c 12 01 00 	lea    0x1128c(%rip),%rax        # 16980 <procname>
    56f4:	0f 87 1b 01 00 00    	ja     5815 <r_ck+0x175>
    56fa:	4a 8b 14 e0          	mov    (%rax,%r12,8),%rdx
    56fe:	48 8d 35 fc ae 00 00 	lea    0xaefc(%rip),%rsi        # 10601 <CSWTCH.1491+0x2a9>
    5705:	bf 02 00 00 00       	mov    $0x2,%edi
    570a:	31 c0                	xor    %eax,%eax
    570c:	e8 9f cd ff ff       	call   24b0 <_init+0x4b0>
    5711:	44 8b 6c 24 1c       	mov    0x1c(%rsp),%r13d
    5716:	bb 01 00 00 00       	mov    $0x1,%ebx
    571b:	31 ed                	xor    %ebp,%ebp
    571d:	4c 8d 35 0c 3d 01 00 	lea    0x13d0c(%rip),%r14        # 19430 <mapstate>
    5724:	41 83 fd 01          	cmp    $0x1,%r13d
    5728:	7f 3f                	jg     5769 <r_ck+0xc9>
    572a:	eb 50                	jmp    577c <r_ck+0xdc>
    572c:	0f 1f 40 00          	nopl   0x0(%rax)
    5730:	4b 8b 04 e6          	mov    (%r14,%r12,8),%rax
    5734:	48 0f bf 04 58       	movswq (%rax,%rbx,2),%rax
    5739:	66 85 c0             	test   %ax,%ax
    573c:	74 07                	je     5745 <r_ck+0xa5>
    573e:	41 80 3c 07 00       	cmpb   $0x0,(%r15,%rax,1)
    5743:	75 2b                	jne    5770 <r_ck+0xd0>
    5745:	48 8b 44 24 08       	mov    0x8(%rsp),%rax
    574a:	8b 54 24 18          	mov    0x18(%rsp),%edx
    574e:	89 d9                	mov    %ebx,%ecx
    5750:	48 8b 74 24 10       	mov    0x10(%rsp),%rsi
    5755:	0f bf 3c 58          	movswl (%rax,%rbx,2),%edi
    5759:	48 83 c3 01          	add    $0x1,%rbx
    575d:	e8 7e fd ff ff       	call   54e0 <xrefsrc>
    5762:	01 c5                	add    %eax,%ebp
    5764:	4c 39 eb             	cmp    %r13,%rbx
    5767:	74 13                	je     577c <r_ck+0xdc>
    5769:	41 80 3c 1f 00       	cmpb   $0x0,(%r15,%rbx,1)
    576e:	74 c0                	je     5730 <r_ck+0x90>
    5770:	48 83 c3 01          	add    $0x1,%rbx
    5774:	83 c5 01             	add    $0x1,%ebp
    5777:	4c 39 eb             	cmp    %r13,%rbx
    577a:	75 ed                	jne    5769 <r_ck+0xc9>
    577c:	8b 4c 24 1c          	mov    0x1c(%rsp),%ecx
    5780:	48 83 c4 28          	add    $0x28,%rsp
    5784:	48 8d 35 b9 ae 00 00 	lea    0xaeb9(%rip),%rsi        # 10644 <CSWTCH.1491+0x2ec>
    578b:	31 c0                	xor    %eax,%eax
    578d:	5b                   	pop    %rbx
    578e:	bf 02 00 00 00       	mov    $0x2,%edi
    5793:	83 e9 01             	sub    $0x1,%ecx
    5796:	89 ca                	mov    %ecx,%edx
    5798:	29 ea                	sub    %ebp,%edx
    579a:	5d                   	pop    %rbp
    579b:	41 5c                	pop    %r12
    579d:	41 5d                	pop    %r13
    579f:	41 5e                	pop    %r14
    57a1:	41 5f                	pop    %r15
    57a3:	e9 08 cd ff ff       	jmp    24b0 <_init+0x4b0>
    57a8:	0f 1f 84 00 00 00 00 	nopl   0x0(%rax,%rax,1)
    57af:	00 
    57b0:	48 8d 3d 64 ae 00 00 	lea    0xae64(%rip),%rdi        # 1061b <CSWTCH.1491+0x2c3>
    57b7:	e8 a4 cb ff ff       	call   2360 <_init+0x360>
    57bc:	e9 50 ff ff ff       	jmp    5711 <r_ck+0x71>
    57c1:	0f 1f 80 00 00 00 00 	nopl   0x0(%rax)
    57c8:	48 8b 3d 69 53 01 00 	mov    0x15369(%rip),%rdi        # 1ab38 <claimname>
    57cf:	48 8d 05 aa 11 01 00 	lea    0x111aa(%rip),%rax        # 16980 <procname>
    57d6:	4a 8b 1c e0          	mov    (%rax,%r12,8),%rbx
    57da:	48 85 ff             	test   %rdi,%rdi
    57dd:	74 0c                	je     57eb <r_ck+0x14b>
    57df:	48 89 de             	mov    %rbx,%rsi
    57e2:	e8 29 cc ff ff       	call   2410 <_init+0x410>
    57e7:	85 c0                	test   %eax,%eax
    57e9:	75 1b                	jne    5806 <r_ck+0x166>
    57eb:	48 89 da             	mov    %rbx,%rdx
    57ee:	48 8d 35 38 ae 00 00 	lea    0xae38(%rip),%rsi        # 1062d <CSWTCH.1491+0x2d5>
    57f5:	bf 02 00 00 00       	mov    $0x2,%edi
    57fa:	31 c0                	xor    %eax,%eax
    57fc:	e8 af cc ff ff       	call   24b0 <_init+0x4b0>
    5801:	e9 0b ff ff ff       	jmp    5711 <r_ck+0x71>
    5806:	48 83 c4 28          	add    $0x28,%rsp
    580a:	5b                   	pop    %rbx
    580b:	5d                   	pop    %rbp
    580c:	41 5c                	pop    %r12
    580e:	41 5d                	pop    %r13
    5810:	41 5e                	pop    %r14
    5812:	41 5f                	pop    %r15
    5814:	c3                   	ret    
    5815:	4a 8b 1c e0          	mov    (%rax,%r12,8),%rbx
    5819:	eb d0                	jmp    57eb <r_ck+0x14b>
    581b:	0f 1f 44 00 00       	nopl   0x0(%rax,%rax,1)

0000000000005820 <sv_restor>:
    5820:	f3 0f 1e fa          	endbr64 
    5824:	53                   	push   %rbx
    5825:	48 8b 1d 5c 49 01 00 	mov    0x1495c(%rip),%rbx        # 1a188 <svtack>
    582c:	b9 0e 04 00 00       	mov    $0x40e,%ecx
    5831:	48 8d 3d 88 54 01 00 	lea    0x15488(%rip),%rdi        # 1acc0 <now>
    5838:	48 0f bf 13          	movswq (%rbx),%rdx
    583c:	48 8b 73 08          	mov    0x8(%rbx),%rsi
    5840:	e8 fb cb ff ff       	call   2440 <_init+0x440>
    5845:	48 0f bf 03          	movswq (%rbx),%rax
    5849:	48 3b 05 e8 3c 01 00 	cmp    0x13ce8(%rip),%rax        # 19538 <vsize>
    5850:	74 14                	je     5866 <sv_restor+0x46>
    5852:	48 8d 3d 06 ae 00 00 	lea    0xae06(%rip),%rdi        # 1065f <CSWTCH.1491+0x307>
    5859:	ff 15 f9 48 01 00    	call   *0x148f9(%rip)        # 1a158 <Uerror>
    585f:	48 8b 1d 22 49 01 00 	mov    0x14922(%rip),%rbx        # 1a188 <svtack>
    5866:	48 8b 43 18          	mov    0x18(%rbx),%rax
    586a:	48 85 c0             	test   %rax,%rax
    586d:	74 11                	je     5880 <sv_restor+0x60>
    586f:	48 89 05 12 49 01 00 	mov    %rax,0x14912(%rip)        # 1a188 <svtack>
    5876:	5b                   	pop    %rbx
    5877:	c3                   	ret    
    5878:	0f 1f 84 00 00 00 00 	nopl   0x0(%rax,%rax,1)
    587f:	00 
    5880:	48 8d 3d d1 ad 00 00 	lea    0xadd1(%rip),%rdi        # 10658 <CSWTCH.1491+0x300>
    5887:	ff 15 cb 48 01 00    	call   *0x148cb(%rip)        # 1a158 <Uerror>
    588d:	48 8b 05 f4 48 01 00 	mov    0x148f4(%rip),%rax        # 1a188 <svtack>
    5894:	5b                   	pop    %rbx
    5895:	48 8b 40 18          	mov    0x18(%rax),%rax
    5899:	48 89 05 e8 48 01 00 	mov    %rax,0x148e8(%rip)        # 1a188 <svtack>
    58a0:	c3                   	ret    
    58a1:	66 66 2e 0f 1f 84 00 	data16 cs nopw 0x0(%rax,%rax,1)
    58a8:	00 00 00 00 
    58ac:	0f 1f 40 00          	nopl   0x0(%rax)

00000000000058b0 <q_restor>:
    58b0:	f3 0f 1e fa          	endbr64 
    58b4:	48 8b 15 d5 48 01 00 	mov    0x148d5(%rip),%rdx        # 1a190 <stack>
    58bb:	41 54                	push   %r12
    58bd:	48 8d 3d fc 53 01 00 	lea    0x153fc(%rip),%rdi        # 1acc0 <now>
    58c4:	0f b6 05 f6 53 01 00 	movzbl 0x153f6(%rip),%eax        # 1acc1 <now+0x1>
    58cb:	48 8b 0d b6 11 01 00 	mov    0x111b6(%rip),%rcx        # 16a88 <q_offset>
    58d2:	55                   	push   %rbp
    58d3:	53                   	push   %rbx
    58d4:	0f b7 72 02          	movzwl 0x2(%rdx),%esi
    58d8:	49 89 c4             	mov    %rax,%r12
    58db:	66 89 34 41          	mov    %si,(%rcx,%rax,2)
    58df:	0f b7 4a 04          	movzwl 0x4(%rdx),%ecx
    58e3:	48 8b 15 8e 11 01 00 	mov    0x1118e(%rip),%rdx        # 16a78 <q_skip>
    58ea:	88 0c 02             	mov    %cl,(%rdx,%rax,1)
    58ed:	48 8b 1d 9c 48 01 00 	mov    0x1489c(%rip),%rbx        # 1a190 <stack>
    58f4:	b9 0e 04 00 00       	mov    $0x40e,%ecx
    58f9:	48 0f bf 6b 04       	movswq 0x4(%rbx),%rbp
    58fe:	48 03 2d 33 3c 01 00 	add    0x13c33(%rip),%rbp        # 19538 <vsize>
    5905:	48 39 cd             	cmp    %rcx,%rbp
    5908:	48 0f bf 13          	movswq (%rbx),%rdx
    590c:	48 8b 73 10          	mov    0x10(%rbx),%rsi
    5910:	48 89 2d 21 3c 01 00 	mov    %rbp,0x13c21(%rip)        # 19538 <vsize>
    5917:	48 0f 43 cd          	cmovae %rbp,%rcx
    591b:	48 01 ef             	add    %rbp,%rdi
    591e:	48 29 e9             	sub    %rbp,%rcx
    5921:	e8 1a cb ff ff       	call   2440 <_init+0x440>
    5926:	48 8b 4b 18          	mov    0x18(%rbx),%rcx
    592a:	48 0f bf 03          	movswq (%rbx),%rax
    592e:	48 8d 15 cb 63 01 00 	lea    0x163cb(%rip),%rdx        # 1bd00 <q_name>
    5935:	80 05 85 53 01 00 01 	addb   $0x1,0x15385(%rip)        # 1acc1 <now+0x1>
    593c:	4a 89 0c e2          	mov    %rcx,(%rdx,%r12,8)
    5940:	0f bf 4b 02          	movswl 0x2(%rbx),%ecx
    5944:	48 01 e8             	add    %rbp,%rax
    5947:	0f bf 53 04          	movswl 0x4(%rbx),%edx
    594b:	48 89 05 e6 3b 01 00 	mov    %rax,0x13be6(%rip)        # 19538 <vsize>
    5952:	66 89 05 6d 53 01 00 	mov    %ax,0x1536d(%rip)        # 1acc6 <now+0x6>
    5959:	89 c8                	mov    %ecx,%eax
    595b:	29 d0                	sub    %edx,%eax
    595d:	39 c1                	cmp    %eax,%ecx
    595f:	7e 35                	jle    5996 <q_restor+0xe6>
    5961:	48 63 d0             	movslq %eax,%rdx
    5964:	83 e9 01             	sub    $0x1,%ecx
    5967:	29 c1                	sub    %eax,%ecx
    5969:	48 8d 42 01          	lea    0x1(%rdx),%rax
    596d:	48 01 c1             	add    %rax,%rcx
    5970:	eb 0a                	jmp    597c <q_restor+0xcc>
    5972:	66 0f 1f 44 00 00    	nopw   0x0(%rax,%rax,1)
    5978:	48 83 c0 01          	add    $0x1,%rax
    597c:	48 8b 35 15 11 01 00 	mov    0x11115(%rip),%rsi        # 16a98 <Mask>
    5983:	c6 04 16 01          	movb   $0x1,(%rsi,%rdx,1)
    5987:	48 89 c2             	mov    %rax,%rdx
    598a:	48 39 c8             	cmp    %rcx,%rax
    598d:	75 e9                	jne    5978 <q_restor+0xc8>
    598f:	48 8b 1d fa 47 01 00 	mov    0x147fa(%rip),%rbx        # 1a190 <stack>
    5996:	48 8b 43 28          	mov    0x28(%rbx),%rax
    599a:	48 85 c0             	test   %rax,%rax
    599d:	74 11                	je     59b0 <q_restor+0x100>
    599f:	5b                   	pop    %rbx
    59a0:	5d                   	pop    %rbp
    59a1:	48 89 05 e8 47 01 00 	mov    %rax,0x147e8(%rip)        # 1a190 <stack>
    59a8:	41 5c                	pop    %r12
    59aa:	c3                   	ret    
    59ab:	0f 1f 44 00 00       	nopl   0x0(%rax,%rax,1)
    59b0:	48 8d 3d b2 ac 00 00 	lea    0xacb2(%rip),%rdi        # 10669 <CSWTCH.1491+0x311>
    59b7:	ff 15 9b 47 01 00    	call   *0x1479b(%rip)        # 1a158 <Uerror>
    59bd:	48 8b 05 cc 47 01 00 	mov    0x147cc(%rip),%rax        # 1a190 <stack>
    59c4:	5b                   	pop    %rbx
    59c5:	5d                   	pop    %rbp
    59c6:	41 5c                	pop    %r12
    59c8:	48 8b 40 28          	mov    0x28(%rax),%rax
    59cc:	48 89 05 bd 47 01 00 	mov    %rax,0x147bd(%rip)        # 1a190 <stack>
    59d3:	c3                   	ret    
    59d4:	66 66 2e 0f 1f 84 00 	data16 cs nopw 0x0(%rax,%rax,1)
    59db:	00 00 00 00 
    59df:	90                   	nop

00000000000059e0 <p_restor>:
    59e0:	f3 0f 1e fa          	endbr64 
    59e4:	41 57                	push   %r15
    59e6:	41 56                	push   %r14
    59e8:	41 55                	push   %r13
    59ea:	41 54                	push   %r12
    59ec:	4c 63 e7             	movslq %edi,%r12
    59ef:	55                   	push   %rbp
    59f0:	4c 89 e5             	mov    %r12,%rbp
    59f3:	53                   	push   %rbx
    59f4:	4b 8d 1c 24          	lea    (%r12,%r12,1),%rbx
    59f8:	48 83 ec 08          	sub    $0x8,%rsp
    59fc:	48 8b 05 8d 47 01 00 	mov    0x1478d(%rip),%rax        # 1a190 <stack>
    5a03:	48 8b 15 86 10 01 00 	mov    0x11086(%rip),%rdx        # 16a90 <proc_offset>
    5a0a:	0f b7 48 02          	movzwl 0x2(%rax),%ecx
    5a0e:	66 42 89 0c 62       	mov    %cx,(%rdx,%r12,2)
    5a13:	0f b7 50 04          	movzwl 0x4(%rax),%edx
    5a17:	48 8b 05 62 10 01 00 	mov    0x11062(%rip),%rax        # 16a80 <proc_skip>
    5a1e:	42 88 14 20          	mov    %dl,(%rax,%r12,1)
    5a22:	4c 8b 3d 67 47 01 00 	mov    0x14767(%rip),%r15        # 1a190 <stack>
    5a29:	48 8d 05 d0 5a 01 00 	lea    0x15ad0(%rip),%rax        # 1b500 <p_name>
    5a30:	49 8b 57 18          	mov    0x18(%r15),%rdx
    5a34:	4a 89 14 e0          	mov    %rdx,(%rax,%r12,8)
    5a38:	49 0f bf 47 04       	movswq 0x4(%r15),%rax
    5a3d:	48 8b 15 f4 3a 01 00 	mov    0x13af4(%rip),%rdx        # 19538 <vsize>
    5a44:	49 89 c6             	mov    %rax,%r14
    5a47:	01 d0                	add    %edx,%eax
    5a49:	48 98                	cltq   
    5a4b:	48 39 c2             	cmp    %rax,%rdx
    5a4e:	73 32                	jae    5a82 <p_restor+0xa2>
    5a50:	48 83 e8 01          	sub    $0x1,%rax
    5a54:	0f 1f 40 00          	nopl   0x0(%rax)
    5a58:	48 8b 15 39 10 01 00 	mov    0x11039(%rip),%rdx        # 16a98 <Mask>
    5a5f:	48 89 c1             	mov    %rax,%rcx
    5a62:	c6 04 02 01          	movb   $0x1,(%rdx,%rax,1)
    5a66:	48 8b 15 cb 3a 01 00 	mov    0x13acb(%rip),%rdx        # 19538 <vsize>
    5a6d:	48 83 e8 01          	sub    $0x1,%rax
    5a71:	48 39 ca             	cmp    %rcx,%rdx
    5a74:	72 e2                	jb     5a58 <p_restor+0x78>
    5a76:	4c 8b 3d 13 47 01 00 	mov    0x14713(%rip),%r15        # 1a190 <stack>
    5a7d:	4d 0f bf 77 04       	movswq 0x4(%r15),%r14
    5a82:	49 01 d6             	add    %rdx,%r14
    5a85:	b9 0e 04 00 00       	mov    $0x40e,%ecx
    5a8a:	49 0f bf 17          	movswq (%r15),%rdx
    5a8e:	49 8b 77 10          	mov    0x10(%r15),%rsi
    5a92:	49 39 ce             	cmp    %rcx,%r14
    5a95:	4c 8d 2d 24 52 01 00 	lea    0x15224(%rip),%r13        # 1acc0 <now>
    5a9c:	4c 89 35 95 3a 01 00 	mov    %r14,0x13a95(%rip)        # 19538 <vsize>
    5aa3:	49 0f 43 ce          	cmovae %r14,%rcx
    5aa7:	4b 8d 7c 35 00       	lea    0x0(%r13,%r14,1),%rdi
    5aac:	4c 29 f1             	sub    %r14,%rcx
    5aaf:	e8 8c c9 ff ff       	call   2440 <_init+0x440>
    5ab4:	48 8b 15 d5 0f 01 00 	mov    0x10fd5(%rip),%rdx        # 16a90 <proc_offset>
    5abb:	49 0f bf 07          	movswq (%r15),%rax
    5abf:	48 8d 35 7e 05 01 00 	lea    0x1057e(%rip),%rsi        # 16044 <Air>
    5ac6:	4a 0f bf 0c 62       	movswq (%rdx,%r12,2),%rcx
    5acb:	4c 01 f0             	add    %r14,%rax
    5ace:	48 89 05 63 3a 01 00 	mov    %rax,0x13a63(%rip)        # 19538 <vsize>
    5ad5:	41 0f b6 54 0d 01    	movzbl 0x1(%r13,%rcx,1),%edx
    5adb:	83 e2 07             	and    $0x7,%edx
    5ade:	66 83 3c 56 00       	cmpw   $0x0,(%rsi,%rdx,2)
    5ae3:	7e 69                	jle    5b4e <p_restor+0x16e>
    5ae5:	48 8b 15 ac 0f 01 00 	mov    0x10fac(%rip),%rdx        # 16a98 <Mask>
    5aec:	c6 44 02 ff 01       	movb   $0x1,-0x1(%rdx,%rax,1)
    5af1:	48 8b 05 98 0f 01 00 	mov    0x10f98(%rip),%rax        # 16a90 <proc_offset>
    5af8:	4a 0f bf 0c 60       	movswq (%rax,%r12,2),%rcx
    5afd:	b8 02 00 00 00       	mov    $0x2,%eax
    5b02:	41 0f b6 54 0d 01    	movzbl 0x1(%r13,%rcx,1),%edx
    5b08:	83 e2 07             	and    $0x7,%edx
    5b0b:	66 83 3c 56 01       	cmpw   $0x1,(%rsi,%rdx,2)
    5b10:	7e 3c                	jle    5b4e <p_restor+0x16e>
    5b12:	66 0f 1f 44 00 00    	nopw   0x0(%rax,%rax,1)
    5b18:	48 8b 15 19 3a 01 00 	mov    0x13a19(%rip),%rdx        # 19538 <vsize>
    5b1f:	48 8b 0d 72 0f 01 00 	mov    0x10f72(%rip),%rcx        # 16a98 <Mask>
    5b26:	48 29 c2             	sub    %rax,%rdx
    5b29:	48 83 c0 01          	add    $0x1,%rax
    5b2d:	c6 04 11 01          	movb   $0x1,(%rcx,%rdx,1)
    5b31:	48 8b 15 58 0f 01 00 	mov    0x10f58(%rip),%rdx        # 16a90 <proc_offset>
    5b38:	48 0f bf 0c 1a       	movswq (%rdx,%rbx,1),%rcx
    5b3d:	41 0f b6 54 0d 01    	movzbl 0x1(%r13,%rcx,1),%edx
    5b43:	83 e2 07             	and    $0x7,%edx
    5b46:	0f bf 14 56          	movswl (%rsi,%rdx,2),%edx
    5b4a:	39 c2                	cmp    %eax,%edx
    5b4c:	7d ca                	jge    5b18 <p_restor+0x138>
    5b4e:	48 8b 05 43 0f 01 00 	mov    0x10f43(%rip),%rax        # 16a98 <Mask>
    5b55:	c6 04 08 01          	movb   $0x1,(%rax,%rcx,1)
    5b59:	48 8b 05 30 0f 01 00 	mov    0x10f30(%rip),%rax        # 16a90 <proc_offset>
    5b60:	48 01 d8             	add    %rbx,%rax
    5b63:	48 0f bf 10          	movswq (%rax),%rdx
    5b67:	41 88 6c 15 00       	mov    %bpl,0x0(%r13,%rdx,1)
    5b6c:	48 8b 15 c5 39 01 00 	mov    0x139c5(%rip),%rdx        # 19538 <vsize>
    5b73:	80 05 46 51 01 00 01 	addb   $0x1,0x15146(%rip)        # 1acc0 <now>
    5b7a:	66 89 15 45 51 01 00 	mov    %dx,0x15145(%rip)        # 1acc6 <now+0x6>
    5b81:	48 8b 15 08 46 01 00 	mov    0x14608(%rip),%rdx        # 1a190 <stack>
    5b88:	0f bf 6a 06          	movswl 0x6(%rdx),%ebp
    5b8c:	48 8b 52 28          	mov    0x28(%rdx),%rdx
    5b90:	48 85 d2             	test   %rdx,%rdx
    5b93:	74 5b                	je     5bf0 <p_restor+0x210>
    5b95:	48 0f bf 00          	movswq (%rax),%rax
    5b99:	48 89 15 f0 45 01 00 	mov    %rdx,0x145f0(%rip)        # 1a190 <stack>
    5ba0:	8d 5d ff             	lea    -0x1(%rbp),%ebx
    5ba3:	49 01 c5             	add    %rax,%r13
    5ba6:	4c 89 2d 9b 50 01 00 	mov    %r13,0x1509b(%rip)        # 1ac48 <this>
    5bad:	85 ed                	test   %ebp,%ebp
    5baf:	7e 29                	jle    5bda <p_restor+0x1fa>
    5bb1:	40 f6 c5 01          	test   $0x1,%bpl
    5bb5:	74 11                	je     5bc8 <p_restor+0x1e8>
    5bb7:	e8 f4 fc ff ff       	call   58b0 <q_restor>
    5bbc:	8d 5d fe             	lea    -0x2(%rbp),%ebx
    5bbf:	83 fd 01             	cmp    $0x1,%ebp
    5bc2:	74 16                	je     5bda <p_restor+0x1fa>
    5bc4:	0f 1f 40 00          	nopl   0x0(%rax)
    5bc8:	e8 e3 fc ff ff       	call   58b0 <q_restor>
    5bcd:	83 eb 02             	sub    $0x2,%ebx
    5bd0:	e8 db fc ff ff       	call   58b0 <q_restor>
    5bd5:	83 fb ff             	cmp    $0xffffffff,%ebx
    5bd8:	75 ee                	jne    5bc8 <p_restor+0x1e8>
    5bda:	48 83 c4 08          	add    $0x8,%rsp
    5bde:	5b                   	pop    %rbx
    5bdf:	5d                   	pop    %rbp
    5be0:	41 5c                	pop    %r12
    5be2:	41 5d                	pop    %r13
    5be4:	41 5e                	pop    %r14
    5be6:	41 5f                	pop    %r15
    5be8:	c3                   	ret    
    5be9:	0f 1f 80 00 00 00 00 	nopl   0x0(%rax)
    5bf0:	48 8d 3d 82 aa 00 00 	lea    0xaa82(%rip),%rdi        # 10679 <CSWTCH.1491+0x321>
    5bf7:	ff 15 5b 45 01 00    	call   *0x1455b(%rip)        # 1a158 <Uerror>
    5bfd:	48 8b 05 8c 45 01 00 	mov    0x1458c(%rip),%rax        # 1a190 <stack>
    5c04:	48 8b 50 28          	mov    0x28(%rax),%rdx
    5c08:	48 8b 05 81 0e 01 00 	mov    0x10e81(%rip),%rax        # 16a90 <proc_offset>
    5c0f:	48 01 d8             	add    %rbx,%rax
    5c12:	eb 81                	jmp    5b95 <p_restor+0x1b5>
    5c14:	66 66 2e 0f 1f 84 00 	data16 cs nopw 0x0(%rax,%rax,1)
    5c1b:	00 00 00 00 
    5c1f:	90                   	nop

0000000000005c20 <ungrab_ints>:
    5c20:	f3 0f 1e fa          	endbr64 
    5c24:	55                   	push   %rbp
    5c25:	48 8d 2d d4 14 01 00 	lea    0x114d4(%rip),%rbp        # 17100 <empty_chunks>
    5c2c:	66 48 0f 6e c7       	movq   %rdi,%xmm0
    5c31:	53                   	push   %rbx
    5c32:	48 63 de             	movslq %esi,%rbx
    5c35:	48 83 ec 18          	sub    $0x18,%rsp
    5c39:	48 8b 44 dd 00       	mov    0x0(%rbp,%rbx,8),%rax
    5c3e:	48 85 c0             	test   %rax,%rax
    5c41:	74 25                	je     5c68 <ungrab_ints+0x48>
    5c43:	48 8b 50 08          	mov    0x8(%rax),%rdx
    5c47:	48 89 54 dd 00       	mov    %rdx,0x0(%rbp,%rbx,8)
    5c4c:	48 8d 15 ad 24 01 00 	lea    0x124ad(%rip),%rdx        # 18100 <filled_chunks>
    5c53:	0f 16 04 da          	movhps (%rdx,%rbx,8),%xmm0
    5c57:	0f 11 00             	movups %xmm0,(%rax)
    5c5a:	48 89 04 da          	mov    %rax,(%rdx,%rbx,8)
    5c5e:	48 83 c4 18          	add    $0x18,%rsp
    5c62:	5b                   	pop    %rbx
    5c63:	5d                   	pop    %rbp
    5c64:	c3                   	ret    
    5c65:	0f 1f 00             	nopl   (%rax)
    5c68:	48 89 7c 24 08       	mov    %rdi,0x8(%rsp)
    5c6d:	48 8d 3d 15 aa 00 00 	lea    0xaa15(%rip),%rdi        # 10689 <CSWTCH.1491+0x331>
    5c74:	ff 15 de 44 01 00    	call   *0x144de(%rip)        # 1a158 <Uerror>
    5c7a:	48 8b 44 dd 00       	mov    0x0(%rbp,%rbx,8),%rax
    5c7f:	f3 0f 7e 44 24 08    	movq   0x8(%rsp),%xmm0
    5c85:	eb bc                	jmp    5c43 <ungrab_ints+0x23>
    5c87:	66 0f 1f 84 00 00 00 	nopw   0x0(%rax,%rax,1)
    5c8e:	00 00 

0000000000005c90 <qs_empty>:
    5c90:	f3 0f 1e fa          	endbr64 
    5c94:	0f b6 15 26 50 01 00 	movzbl 0x15026(%rip),%edx        # 1acc1 <now+0x1>
    5c9b:	84 d2                	test   %dl,%dl
    5c9d:	74 41                	je     5ce0 <qs_empty+0x50>
    5c9f:	48 8b 05 e2 0d 01 00 	mov    0x10de2(%rip),%rax        # 16a88 <q_offset>
    5ca6:	83 ea 01             	sub    $0x1,%edx
    5ca9:	48 8d 0d 10 50 01 00 	lea    0x15010(%rip),%rcx        # 1acc0 <now>
    5cb0:	48 8d 74 50 02       	lea    0x2(%rax,%rdx,2),%rsi
    5cb5:	eb 12                	jmp    5cc9 <qs_empty+0x39>
    5cb7:	66 0f 1f 84 00 00 00 	nopw   0x0(%rax,%rax,1)
    5cbe:	00 00 
    5cc0:	48 83 c0 02          	add    $0x2,%rax
    5cc4:	48 39 f0             	cmp    %rsi,%rax
    5cc7:	74 17                	je     5ce0 <qs_empty+0x50>
    5cc9:	48 0f bf 10          	movswq (%rax),%rdx
    5ccd:	80 3c 11 00          	cmpb   $0x0,(%rcx,%rdx,1)
    5cd1:	74 ed                	je     5cc0 <qs_empty+0x30>
    5cd3:	31 c0                	xor    %eax,%eax
    5cd5:	c3                   	ret    
    5cd6:	66 2e 0f 1f 84 00 00 	cs nopw 0x0(%rax,%rax,1)
    5cdd:	00 00 00 
    5ce0:	b8 01 00 00 00       	mov    $0x1,%eax
    5ce5:	c3                   	ret    
    5ce6:	66 2e 0f 1f 84 00 00 	cs nopw 0x0(%rax,%rax,1)
    5ced:	00 00 00 

0000000000005cf0 <endstate>:
    5cf0:	f3 0f 1e fa          	endbr64 
    5cf4:	0f b6 05 c5 4f 01 00 	movzbl 0x14fc5(%rip),%eax        # 1acc0 <now>
    5cfb:	84 c0                	test   %al,%al
    5cfd:	74 51                	je     5d50 <endstate+0x60>
    5cff:	48 8b 15 8a 0d 01 00 	mov    0x10d8a(%rip),%rdx        # 16a90 <proc_offset>
    5d06:	83 e8 01             	sub    $0x1,%eax
    5d09:	48 8d 35 b0 4f 01 00 	lea    0x14fb0(%rip),%rsi        # 1acc0 <now>
    5d10:	48 8d 3d 59 37 01 00 	lea    0x13759(%rip),%rdi        # 19470 <stopstate>
    5d17:	4c 8d 44 42 02       	lea    0x2(%rdx,%rax,2),%r8
    5d1c:	eb 0b                	jmp    5d29 <endstate+0x39>
    5d1e:	66 90                	xchg   %ax,%ax
    5d20:	48 83 c2 02          	add    $0x2,%rdx
    5d24:	49 39 d0             	cmp    %rdx,%r8
    5d27:	74 27                	je     5d50 <endstate+0x60>
    5d29:	48 0f bf 02          	movswq (%rdx),%rax
    5d2d:	48 01 f0             	add    %rsi,%rax
    5d30:	0f b6 48 01          	movzbl 0x1(%rax),%ecx
    5d34:	8b 00                	mov    (%rax),%eax
    5d36:	83 e1 07             	and    $0x7,%ecx
    5d39:	c1 e8 0b             	shr    $0xb,%eax
    5d3c:	48 8b 0c cf          	mov    (%rdi,%rcx,8),%rcx
    5d40:	83 e0 7f             	and    $0x7f,%eax
    5d43:	80 3c 01 00          	cmpb   $0x0,(%rcx,%rax,1)
    5d47:	75 d7                	jne    5d20 <endstate+0x30>
    5d49:	31 c0                	xor    %eax,%eax
    5d4b:	c3                   	ret    
    5d4c:	0f 1f 40 00          	nopl   0x0(%rax)
    5d50:	8b 15 06 4e 01 00    	mov    0x14e06(%rip),%edx        # 1ab5c <strict>
    5d56:	b8 01 00 00 00       	mov    $0x1,%eax
    5d5b:	85 d2                	test   %edx,%edx
    5d5d:	74 ec                	je     5d4b <endstate+0x5b>
    5d5f:	0f b6 15 5b 4f 01 00 	movzbl 0x14f5b(%rip),%edx        # 1acc1 <now+0x1>
    5d66:	84 d2                	test   %dl,%dl
    5d68:	74 e1                	je     5d4b <endstate+0x5b>
    5d6a:	48 8b 05 17 0d 01 00 	mov    0x10d17(%rip),%rax        # 16a88 <q_offset>
    5d71:	83 ea 01             	sub    $0x1,%edx
    5d74:	48 8d 35 45 4f 01 00 	lea    0x14f45(%rip),%rsi        # 1acc0 <now>
    5d7b:	48 8d 4c 50 02       	lea    0x2(%rax,%rdx,2),%rcx
    5d80:	eb 0f                	jmp    5d91 <endstate+0xa1>
    5d82:	66 0f 1f 44 00 00    	nopw   0x0(%rax,%rax,1)
    5d88:	48 83 c0 02          	add    $0x2,%rax
    5d8c:	48 39 c1             	cmp    %rax,%rcx
    5d8f:	74 0d                	je     5d9e <endstate+0xae>
    5d91:	48 0f bf 10          	movswq (%rax),%rdx
    5d95:	80 3c 16 00          	cmpb   $0x0,(%rsi,%rdx,1)
    5d99:	74 ed                	je     5d88 <endstate+0x98>
    5d9b:	31 c0                	xor    %eax,%eax
    5d9d:	c3                   	ret    
    5d9e:	b8 01 00 00 00       	mov    $0x1,%eax
    5da3:	c3                   	ret    
    5da4:	66 66 2e 0f 1f 84 00 	data16 cs nopw 0x0(%rax,%rax,1)
    5dab:	00 00 00 00 
    5daf:	90                   	nop

0000000000005db0 <compress>:
    5db0:	f3 0f 1e fa          	endbr64 
    5db4:	4c 63 c6             	movslq %esi,%r8
    5db7:	41 54                	push   %r12
    5db9:	49 89 f9             	mov    %rdi,%r9
    5dbc:	55                   	push   %rbp
    5dbd:	53                   	push   %rbx
    5dbe:	41 83 f8 07          	cmp    $0x7,%r8d
    5dc2:	7f 5c                	jg     5e20 <compress+0x70>
    5dc4:	48 8d 1d f5 47 01 00 	lea    0x147f5(%rip),%rbx        # 1a5c0 <comp_now>
    5dcb:	48 89 d8             	mov    %rbx,%rax
    5dce:	45 85 c0             	test   %r8d,%r8d
    5dd1:	7e 39                	jle    5e0c <compress+0x5c>
    5dd3:	48 8d 1d e6 47 01 00 	lea    0x147e6(%rip),%rbx        # 1a5c0 <comp_now>
    5dda:	48 8b 0d b7 0c 01 00 	mov    0x10cb7(%rip),%rcx        # 16a98 <Mask>
    5de1:	31 d2                	xor    %edx,%edx
    5de3:	48 89 d8             	mov    %rbx,%rax
    5de6:	66 2e 0f 1f 84 00 00 	cs nopw 0x0(%rax,%rax,1)
    5ded:	00 00 00 
    5df0:	80 3c 11 00          	cmpb   $0x0,(%rcx,%rdx,1)
    5df4:	75 0d                	jne    5e03 <compress+0x53>
    5df6:	41 0f b6 34 11       	movzbl (%r9,%rdx,1),%esi
    5dfb:	48 83 c0 01          	add    $0x1,%rax
    5dff:	40 88 70 ff          	mov    %sil,-0x1(%rax)
    5e03:	48 83 c2 01          	add    $0x1,%rdx
    5e07:	4c 39 c2             	cmp    %r8,%rdx
    5e0a:	75 e4                	jne    5df0 <compress+0x40>
    5e0c:	c7 00 00 00 00 00    	movl   $0x0,(%rax)
    5e12:	c7 40 03 00 00 00 00 	movl   $0x0,0x3(%rax)
    5e19:	29 d8                	sub    %ebx,%eax
    5e1b:	5b                   	pop    %rbx
    5e1c:	5d                   	pop    %rbp
    5e1d:	41 5c                	pop    %r12
    5e1f:	c3                   	ret    
    5e20:	4c 8b 1d 71 0c 01 00 	mov    0x10c71(%rip),%r11        # 16a98 <Mask>
    5e27:	45 89 c2             	mov    %r8d,%r10d
    5e2a:	48 8d 1d 8f 47 01 00 	lea    0x1478f(%rip),%rbx        # 1a5c0 <comp_now>
    5e31:	48 89 fa             	mov    %rdi,%rdx
    5e34:	41 c1 fa 03          	sar    $0x3,%r10d
    5e38:	31 ff                	xor    %edi,%edi
    5e3a:	48 89 dd             	mov    %rbx,%rbp
    5e3d:	be 01 00 00 00       	mov    $0x1,%esi
    5e42:	4c 89 d9             	mov    %r11,%rcx
    5e45:	0f 1f 00             	nopl   (%rax)
    5e48:	0f b6 02             	movzbl (%rdx),%eax
    5e4b:	48 83 c2 08          	add    $0x8,%rdx
    5e4f:	83 c7 01             	add    $0x1,%edi
    5e52:	48 83 c1 08          	add    $0x8,%rcx
    5e56:	88 45 00             	mov    %al,0x0(%rbp)
    5e59:	44 0f b6 61 f8       	movzbl -0x8(%rcx),%r12d
    5e5e:	89 f0                	mov    %esi,%eax
    5e60:	44 29 e0             	sub    %r12d,%eax
    5e63:	48 98                	cltq   
    5e65:	48 01 e8             	add    %rbp,%rax
    5e68:	0f b6 6a f9          	movzbl -0x7(%rdx),%ebp
    5e6c:	40 88 28             	mov    %bpl,(%rax)
    5e6f:	44 0f b6 61 f9       	movzbl -0x7(%rcx),%r12d
    5e74:	89 f5                	mov    %esi,%ebp
    5e76:	44 29 e5             	sub    %r12d,%ebp
    5e79:	48 63 ed             	movslq %ebp,%rbp
    5e7c:	48 01 e8             	add    %rbp,%rax
    5e7f:	0f b6 6a fa          	movzbl -0x6(%rdx),%ebp
    5e83:	40 88 28             	mov    %bpl,(%rax)
    5e86:	44 0f b6 61 fa       	movzbl -0x6(%rcx),%r12d
    5e8b:	89 f5                	mov    %esi,%ebp
    5e8d:	44 29 e5             	sub    %r12d,%ebp
    5e90:	48 63 ed             	movslq %ebp,%rbp
    5e93:	48 01 e8             	add    %rbp,%rax
    5e96:	0f b6 6a fb          	movzbl -0x5(%rdx),%ebp
    5e9a:	40 88 28             	mov    %bpl,(%rax)
    5e9d:	44 0f b6 61 fb       	movzbl -0x5(%rcx),%r12d
    5ea2:	89 f5                	mov    %esi,%ebp
    5ea4:	44 29 e5             	sub    %r12d,%ebp
    5ea7:	48 63 ed             	movslq %ebp,%rbp
    5eaa:	48 01 e8             	add    %rbp,%rax
    5ead:	0f b6 6a fc          	movzbl -0x4(%rdx),%ebp
    5eb1:	40 88 28             	mov    %bpl,(%rax)
    5eb4:	44 0f b6 61 fc       	movzbl -0x4(%rcx),%r12d
    5eb9:	89 f5                	mov    %esi,%ebp
    5ebb:	44 29 e5             	sub    %r12d,%ebp
    5ebe:	48 63 ed             	movslq %ebp,%rbp
    5ec1:	48 01 e8             	add    %rbp,%rax
    5ec4:	0f b6 6a fd          	movzbl -0x3(%rdx),%ebp
    5ec8:	40 88 28             	mov    %bpl,(%rax)
    5ecb:	44 0f b6 61 fd       	movzbl -0x3(%rcx),%r12d
    5ed0:	89 f5                	mov    %esi,%ebp
    5ed2:	44 29 e5             	sub    %r12d,%ebp
    5ed5:	48 63 ed             	movslq %ebp,%rbp
    5ed8:	48 01 e8             	add    %rbp,%rax
    5edb:	0f b6 6a fe          	movzbl -0x2(%rdx),%ebp
    5edf:	40 88 28             	mov    %bpl,(%rax)
    5ee2:	44 0f b6 61 fe       	movzbl -0x2(%rcx),%r12d
    5ee7:	89 f5                	mov    %esi,%ebp
    5ee9:	44 29 e5             	sub    %r12d,%ebp
    5eec:	48 63 ed             	movslq %ebp,%rbp
    5eef:	48 01 e8             	add    %rbp,%rax
    5ef2:	0f b6 6a ff          	movzbl -0x1(%rdx),%ebp
    5ef6:	40 88 28             	mov    %bpl,(%rax)
    5ef9:	44 0f b6 61 ff       	movzbl -0x1(%rcx),%r12d
    5efe:	89 f5                	mov    %esi,%ebp
    5f00:	44 29 e5             	sub    %r12d,%ebp
    5f03:	48 63 ed             	movslq %ebp,%rbp
    5f06:	48 01 c5             	add    %rax,%rbp
    5f09:	41 39 fa             	cmp    %edi,%r10d
    5f0c:	0f 8f 36 ff ff ff    	jg     5e48 <compress+0x98>
    5f12:	44 89 d0             	mov    %r10d,%eax
    5f15:	49 8d 14 c1          	lea    (%r9,%rax,8),%rdx
    5f19:	42 8d 04 d5 00 00 00 	lea    0x0(,%r10,8),%eax
    5f20:	00 
    5f21:	41 29 c0             	sub    %eax,%r8d
    5f24:	41 83 f8 07          	cmp    $0x7,%r8d
    5f28:	0f 87 fa 00 00 00    	ja     6028 <compress+0x278>
    5f2e:	48 8d 35 0b a1 00 00 	lea    0xa10b(%rip),%rsi        # 10040 <_IO_stdin_used+0x40>
    5f35:	4a 63 0c 86          	movslq (%rsi,%r8,4),%rcx
    5f39:	48 01 f1             	add    %rsi,%rcx
    5f3c:	3e ff e1             	notrack jmp *%rcx
    5f3f:	90                   	nop
    5f40:	0f b6 12             	movzbl (%rdx),%edx
    5f43:	48 98                	cltq   
    5f45:	41 8d 4a ff          	lea    -0x1(%r10),%ecx
    5f49:	88 55 00             	mov    %dl,0x0(%rbp)
    5f4c:	41 0f b6 14 03       	movzbl (%r11,%rax,1),%edx
    5f51:	b8 01 00 00 00       	mov    $0x1,%eax
    5f56:	29 d0                	sub    %edx,%eax
    5f58:	49 8d 54 c9 09       	lea    0x9(%r9,%rcx,8),%rdx
    5f5d:	48 98                	cltq   
    5f5f:	48 01 c5             	add    %rax,%rbp
    5f62:	8d 04 cd 09 00 00 00 	lea    0x9(,%rcx,8),%eax
    5f69:	0f b6 0a             	movzbl (%rdx),%ecx
    5f6c:	48 83 c2 01          	add    $0x1,%rdx
    5f70:	88 4d 00             	mov    %cl,0x0(%rbp)
    5f73:	48 63 c8             	movslq %eax,%rcx
    5f76:	83 c0 01             	add    $0x1,%eax
    5f79:	41 0f b6 34 0b       	movzbl (%r11,%rcx,1),%esi
    5f7e:	b9 01 00 00 00       	mov    $0x1,%ecx
    5f83:	29 f1                	sub    %esi,%ecx
    5f85:	48 63 c9             	movslq %ecx,%rcx
    5f88:	48 01 cd             	add    %rcx,%rbp
    5f8b:	48 8d 72 01          	lea    0x1(%rdx),%rsi
    5f8f:	0f b6 12             	movzbl (%rdx),%edx
    5f92:	8d 48 01             	lea    0x1(%rax),%ecx
    5f95:	48 98                	cltq   
    5f97:	88 55 00             	mov    %dl,0x0(%rbp)
    5f9a:	41 0f b6 14 03       	movzbl (%r11,%rax,1),%edx
    5f9f:	b8 01 00 00 00       	mov    $0x1,%eax
    5fa4:	29 d0                	sub    %edx,%eax
    5fa6:	48 98                	cltq   
    5fa8:	48 01 c5             	add    %rax,%rbp
    5fab:	0f b6 06             	movzbl (%rsi),%eax
    5fae:	48 8d 56 01          	lea    0x1(%rsi),%rdx
    5fb2:	88 45 00             	mov    %al,0x0(%rbp)
    5fb5:	8d 41 01             	lea    0x1(%rcx),%eax
    5fb8:	48 63 c9             	movslq %ecx,%rcx
    5fbb:	41 0f b6 34 0b       	movzbl (%r11,%rcx,1),%esi
    5fc0:	b9 01 00 00 00       	mov    $0x1,%ecx
    5fc5:	29 f1                	sub    %esi,%ecx
    5fc7:	48 63 c9             	movslq %ecx,%rcx
    5fca:	48 01 cd             	add    %rcx,%rbp
    5fcd:	48 8d 72 01          	lea    0x1(%rdx),%rsi
    5fd1:	0f b6 12             	movzbl (%rdx),%edx
    5fd4:	8d 48 01             	lea    0x1(%rax),%ecx
    5fd7:	48 98                	cltq   
    5fd9:	88 55 00             	mov    %dl,0x0(%rbp)
    5fdc:	41 0f b6 14 03       	movzbl (%r11,%rax,1),%edx
    5fe1:	b8 01 00 00 00       	mov    $0x1,%eax
    5fe6:	29 d0                	sub    %edx,%eax
    5fe8:	48 98                	cltq   
    5fea:	48 01 c5             	add    %rax,%rbp
    5fed:	0f b6 06             	movzbl (%rsi),%eax
    5ff0:	48 8d 56 01          	lea    0x1(%rsi),%rdx
    5ff4:	88 45 00             	mov    %al,0x0(%rbp)
    5ff7:	8d 41 01             	lea    0x1(%rcx),%eax
    5ffa:	48 63 c9             	movslq %ecx,%rcx
    5ffd:	41 0f b6 34 0b       	movzbl (%r11,%rcx,1),%esi
    6002:	b9 01 00 00 00       	mov    $0x1,%ecx
    6007:	29 f1                	sub    %esi,%ecx
    6009:	48 63 c9             	movslq %ecx,%rcx
    600c:	48 01 cd             	add    %rcx,%rbp
    600f:	0f b6 12             	movzbl (%rdx),%edx
    6012:	48 98                	cltq   
    6014:	88 55 00             	mov    %dl,0x0(%rbp)
    6017:	41 0f b6 14 03       	movzbl (%r11,%rax,1),%edx
    601c:	b8 01 00 00 00       	mov    $0x1,%eax
    6021:	29 d0                	sub    %edx,%eax
    6023:	48 98                	cltq   
    6025:	48 01 c5             	add    %rax,%rbp
    6028:	48 89 e8             	mov    %rbp,%rax
    602b:	48 29 d8             	sub    %rbx,%rax
    602e:	89 c2                	mov    %eax,%edx
    6030:	44 8d 60 0e          	lea    0xe(%rax),%r12d
    6034:	83 c2 07             	add    $0x7,%edx
    6037:	44 0f 49 e2          	cmovns %edx,%r12d
    603b:	41 83 e4 f8          	and    $0xfffffff8,%r12d
    603f:	41 29 c4             	sub    %eax,%r12d
    6042:	41 83 fc 07          	cmp    $0x7,%r12d
    6046:	0f 87 89 00 00 00    	ja     60d5 <compress+0x325>
    604c:	48 8d 15 0d a0 00 00 	lea    0xa00d(%rip),%rdx        # 10060 <_IO_stdin_used+0x60>
    6053:	44 89 e0             	mov    %r12d,%eax
    6056:	48 63 04 82          	movslq (%rdx,%rax,4),%rax
    605a:	48 01 d0             	add    %rdx,%rax
    605d:	3e ff e0             	notrack jmp *%rax
    6060:	c6 45 00 00          	movb   $0x0,0x0(%rbp)
    6064:	48 83 c5 01          	add    $0x1,%rbp
    6068:	c6 45 00 00          	movb   $0x0,0x0(%rbp)
    606c:	48 83 c5 01          	add    $0x1,%rbp
    6070:	c6 45 00 00          	movb   $0x0,0x0(%rbp)
    6074:	48 8d 45 01          	lea    0x1(%rbp),%rax
    6078:	c6 00 00             	movb   $0x0,(%rax)
    607b:	48 8d 68 01          	lea    0x1(%rax),%rbp
    607f:	c6 45 00 00          	movb   $0x0,0x0(%rbp)
    6083:	48 8d 45 01          	lea    0x1(%rbp),%rax
    6087:	c6 00 00             	movb   $0x0,(%rax)
    608a:	48 8d 68 01          	lea    0x1(%rax),%rbp
    608e:	c6 45 00 00          	movb   $0x0,0x0(%rbp)
    6092:	48 8d 45 01          	lea    0x1(%rbp),%rax
    6096:	4d 63 e4             	movslq %r12d,%r12
    6099:	4c 29 e0             	sub    %r12,%rax
    609c:	29 d8                	sub    %ebx,%eax
    609e:	5b                   	pop    %rbx
    609f:	5d                   	pop    %rbp
    60a0:	41 5c                	pop    %r12
    60a2:	c3                   	ret    
    60a3:	0f 1f 44 00 00       	nopl   0x0(%rax,%rax,1)
    60a8:	89 c1                	mov    %eax,%ecx
    60aa:	48 89 d6             	mov    %rdx,%rsi
    60ad:	e9 3b ff ff ff       	jmp    5fed <compress+0x23d>
    60b2:	66 0f 1f 44 00 00    	nopw   0x0(%rax,%rax,1)
    60b8:	89 c1                	mov    %eax,%ecx
    60ba:	48 89 d6             	mov    %rdx,%rsi
    60bd:	e9 e9 fe ff ff       	jmp    5fab <compress+0x1fb>
    60c2:	66 0f 1f 44 00 00    	nopw   0x0(%rax,%rax,1)
    60c8:	48 89 e8             	mov    %rbp,%rax
    60cb:	eb ba                	jmp    6087 <compress+0x2d7>
    60cd:	0f 1f 00             	nopl   (%rax)
    60d0:	48 89 e8             	mov    %rbp,%rax
    60d3:	eb a3                	jmp    6078 <compress+0x2c8>
    60d5:	48 8d 3d c6 a5 00 00 	lea    0xa5c6(%rip),%rdi        # 106a2 <CSWTCH.1491+0x34a>
    60dc:	ff 15 76 40 01 00    	call   *0x14076(%rip)        # 1a158 <Uerror>
    60e2:	48 89 e8             	mov    %rbp,%rax
    60e5:	eb af                	jmp    6096 <compress+0x2e6>
    60e7:	66 0f 1f 84 00 00 00 	nopw   0x0(%rax,%rax,1)
    60ee:	00 00 

00000000000060f0 <o_hash32>:
    60f0:	f3 0f 1e fa          	endbr64 
    60f4:	48 89 f9             	mov    %rdi,%rcx
    60f7:	89 f7                	mov    %esi,%edi
    60f9:	c1 fe 02             	sar    $0x2,%esi
    60fc:	83 e7 03             	and    $0x3,%edi
    60ff:	85 f6                	test   %esi,%esi
    6101:	0f 8e f1 00 00 00    	jle    61f8 <o_hash32+0x108>
    6107:	4c 8d 04 b1          	lea    (%rcx,%rsi,4),%r8
    610b:	0f 1f 44 00 00       	nopl   0x0(%rax,%rax,1)
    6110:	0f b6 41 01          	movzbl 0x1(%rcx),%eax
    6114:	0f b6 31             	movzbl (%rcx),%esi
    6117:	48 83 c1 04          	add    $0x4,%rcx
    611b:	c1 e0 08             	shl    $0x8,%eax
    611e:	01 f0                	add    %esi,%eax
    6120:	01 d0                	add    %edx,%eax
    6122:	0f b7 51 fe          	movzwl -0x2(%rcx),%edx
    6126:	c1 e2 0b             	shl    $0xb,%edx
    6129:	31 c2                	xor    %eax,%edx
    612b:	c1 e0 10             	shl    $0x10,%eax
    612e:	31 d0                	xor    %edx,%eax
    6130:	89 c2                	mov    %eax,%edx
    6132:	c1 fa 0b             	sar    $0xb,%edx
    6135:	01 c2                	add    %eax,%edx
    6137:	4c 39 c1             	cmp    %r8,%rcx
    613a:	75 d4                	jne    6110 <o_hash32+0x20>
    613c:	83 ff 02             	cmp    $0x2,%edi
    613f:	0f 84 8b 00 00 00    	je     61d0 <o_hash32+0xe0>
    6145:	83 ff 03             	cmp    $0x3,%edi
    6148:	74 56                	je     61a0 <o_hash32+0xb0>
    614a:	83 ff 01             	cmp    $0x1,%edi
    614d:	74 39                	je     6188 <o_hash32+0x98>
    614f:	8d 04 d5 00 00 00 00 	lea    0x0(,%rdx,8),%eax
    6156:	31 c2                	xor    %eax,%edx
    6158:	89 d0                	mov    %edx,%eax
    615a:	c1 f8 05             	sar    $0x5,%eax
    615d:	01 d0                	add    %edx,%eax
    615f:	89 c2                	mov    %eax,%edx
    6161:	c1 e2 04             	shl    $0x4,%edx
    6164:	31 c2                	xor    %eax,%edx
    6166:	89 d0                	mov    %edx,%eax
    6168:	c1 f8 11             	sar    $0x11,%eax
    616b:	01 d0                	add    %edx,%eax
    616d:	89 c2                	mov    %eax,%edx
    616f:	c1 e2 19             	shl    $0x19,%edx
    6172:	31 c2                	xor    %eax,%edx
    6174:	89 d0                	mov    %edx,%eax
    6176:	c1 f8 06             	sar    $0x6,%eax
    6179:	01 d0                	add    %edx,%eax
    617b:	48 98                	cltq   
    617d:	48 89 05 fc 3f 01 00 	mov    %rax,0x13ffc(%rip)        # 1a180 <K1>
    6184:	c3                   	ret    
    6185:	0f 1f 00             	nopl   (%rax)
    6188:	41 0f b6 00          	movzbl (%r8),%eax
    618c:	01 c2                	add    %eax,%edx
    618e:	89 d0                	mov    %edx,%eax
    6190:	c1 e0 0a             	shl    $0xa,%eax
    6193:	31 d0                	xor    %edx,%eax
    6195:	89 c2                	mov    %eax,%edx
    6197:	d1 fa                	sar    %edx
    6199:	01 c2                	add    %eax,%edx
    619b:	eb b2                	jmp    614f <o_hash32+0x5f>
    619d:	0f 1f 00             	nopl   (%rax)
    61a0:	41 0f b6 08          	movzbl (%r8),%ecx
    61a4:	41 0f b6 40 01       	movzbl 0x1(%r8),%eax
    61a9:	01 ca                	add    %ecx,%edx
    61ab:	c1 e0 08             	shl    $0x8,%eax
    61ae:	01 d0                	add    %edx,%eax
    61b0:	41 0f b6 50 02       	movzbl 0x2(%r8),%edx
    61b5:	89 c1                	mov    %eax,%ecx
    61b7:	c1 e2 12             	shl    $0x12,%edx
    61ba:	c1 e1 10             	shl    $0x10,%ecx
    61bd:	31 d0                	xor    %edx,%eax
    61bf:	31 c8                	xor    %ecx,%eax
    61c1:	89 c2                	mov    %eax,%edx
    61c3:	c1 fa 0b             	sar    $0xb,%edx
    61c6:	01 c2                	add    %eax,%edx
    61c8:	eb 85                	jmp    614f <o_hash32+0x5f>
    61ca:	66 0f 1f 44 00 00    	nopw   0x0(%rax,%rax,1)
    61d0:	41 0f b6 40 01       	movzbl 0x1(%r8),%eax
    61d5:	41 0f b6 08          	movzbl (%r8),%ecx
    61d9:	c1 e0 08             	shl    $0x8,%eax
    61dc:	01 ca                	add    %ecx,%edx
    61de:	01 d0                	add    %edx,%eax
    61e0:	89 c2                	mov    %eax,%edx
    61e2:	c1 e2 0b             	shl    $0xb,%edx
    61e5:	31 d0                	xor    %edx,%eax
    61e7:	89 c2                	mov    %eax,%edx
    61e9:	c1 fa 11             	sar    $0x11,%edx
    61ec:	01 c2                	add    %eax,%edx
    61ee:	e9 5c ff ff ff       	jmp    614f <o_hash32+0x5f>
    61f3:	0f 1f 44 00 00       	nopl   0x0(%rax,%rax,1)
    61f8:	49 89 c8             	mov    %rcx,%r8
    61fb:	e9 3c ff ff ff       	jmp    613c <o_hash32+0x4c>

0000000000006200 <o_hash64>:
    6200:	f3 0f 1e fa          	endbr64 
    6204:	85 f6                	test   %esi,%esi
    6206:	44 8d 46 07          	lea    0x7(%rsi),%r8d
    620a:	89 f0                	mov    %esi,%eax
    620c:	48 63 ca             	movslq %edx,%rcx
    620f:	44 0f 49 c6          	cmovns %esi,%r8d
    6213:	c1 f8 1f             	sar    $0x1f,%eax
    6216:	c1 e8 1d             	shr    $0x1d,%eax
    6219:	8d 14 06             	lea    (%rsi,%rax,1),%edx
    621c:	41 c1 f8 03          	sar    $0x3,%r8d
    6220:	48 63 f6             	movslq %esi,%rsi
    6223:	83 e2 07             	and    $0x7,%edx
    6226:	4d 63 c0             	movslq %r8d,%r8
    6229:	29 d0                	sub    %edx,%eax
    622b:	83 c0 08             	add    $0x8,%eax
    622e:	48 63 d0             	movslq %eax,%rdx
    6231:	48 83 ea 01          	sub    $0x1,%rdx
    6235:	48 83 fa 06          	cmp    $0x6,%rdx
    6239:	77 4d                	ja     6288 <o_hash64+0x88>
    623b:	49 83 c0 01          	add    $0x1,%r8
    623f:	48 8d 14 37          	lea    (%rdi,%rsi,1),%rdx
    6243:	83 f8 07             	cmp    $0x7,%eax
    6246:	77 3d                	ja     6285 <o_hash64+0x85>
    6248:	4c 8d 0d 31 9e 00 00 	lea    0x9e31(%rip),%r9        # 10080 <_IO_stdin_used+0x80>
    624f:	89 c0                	mov    %eax,%eax
    6251:	49 63 04 81          	movslq (%r9,%rax,4),%rax
    6255:	4c 01 c8             	add    %r9,%rax
    6258:	3e ff e0             	notrack jmp *%rax
    625b:	c6 02 00             	movb   $0x0,(%rdx)
    625e:	48 83 c2 01          	add    $0x1,%rdx
    6262:	c6 02 00             	movb   $0x0,(%rdx)
    6265:	48 83 c2 01          	add    $0x1,%rdx
    6269:	c6 02 00             	movb   $0x0,(%rdx)
    626c:	48 8d 42 01          	lea    0x1(%rdx),%rax
    6270:	c6 00 00             	movb   $0x0,(%rax)
    6273:	48 8d 50 01          	lea    0x1(%rax),%rdx
    6277:	c6 02 00             	movb   $0x0,(%rdx)
    627a:	48 8d 42 01          	lea    0x1(%rdx),%rax
    627e:	c6 00 00             	movb   $0x0,(%rax)
    6281:	48 8d 50 01          	lea    0x1(%rax),%rdx
    6285:	c6 02 00             	movb   $0x0,(%rdx)
    6288:	0f b6 15 99 49 01 00 	movzbl 0x14999(%rip),%edx        # 1ac28 <HASH_NR>
    628f:	48 8d 05 ea fe 00 00 	lea    0xfeea(%rip),%rax        # 16180 <HASH_CONST>
    6296:	8b 04 90             	mov    (%rax,%rdx,4),%eax
    6299:	48 ba 13 7c 4a 7f b9 	movabs $0x9e3779b97f4a7c13,%rdx
    62a0:	79 37 9e 
    62a3:	49 83 f8 02          	cmp    $0x2,%r8
    62a7:	0f 86 fc 00 00 00    	jbe    63a9 <o_hash64+0x1a9>
    62ad:	0f 1f 00             	nopl   (%rax)
    62b0:	48 03 57 10          	add    0x10(%rdi),%rdx
    62b4:	48 03 47 08          	add    0x8(%rdi),%rax
    62b8:	4c 8d 14 10          	lea    (%rax,%rdx,1),%r10
    62bc:	48 03 0f             	add    (%rdi),%rcx
    62bf:	48 29 d0             	sub    %rdx,%rax
    62c2:	4c 29 d1             	sub    %r10,%rcx
    62c5:	49 89 c9             	mov    %rcx,%r9
    62c8:	48 89 d1             	mov    %rdx,%rcx
    62cb:	48 c1 e9 2b          	shr    $0x2b,%rcx
    62cf:	4c 31 c9             	xor    %r9,%rcx
    62d2:	49 89 c9             	mov    %rcx,%r9
    62d5:	48 29 c8             	sub    %rcx,%rax
    62d8:	48 29 ca             	sub    %rcx,%rdx
    62db:	49 c1 e1 09          	shl    $0x9,%r9
    62df:	49 31 c1             	xor    %rax,%r9
    62e2:	4c 89 c8             	mov    %r9,%rax
    62e5:	4c 29 ca             	sub    %r9,%rdx
    62e8:	4c 29 c9             	sub    %r9,%rcx
    62eb:	48 c1 e8 08          	shr    $0x8,%rax
    62ef:	48 31 c2             	xor    %rax,%rdx
    62f2:	48 89 c8             	mov    %rcx,%rax
    62f5:	48 89 d1             	mov    %rdx,%rcx
    62f8:	48 29 d0             	sub    %rdx,%rax
    62fb:	49 29 d1             	sub    %rdx,%r9
    62fe:	48 c1 e9 26          	shr    $0x26,%rcx
    6302:	48 31 c1             	xor    %rax,%rcx
    6305:	48 89 c8             	mov    %rcx,%rax
    6308:	49 29 c9             	sub    %rcx,%r9
    630b:	48 29 ca             	sub    %rcx,%rdx
    630e:	48 c1 e0 17          	shl    $0x17,%rax
    6312:	4c 31 c8             	xor    %r9,%rax
    6315:	48 29 c2             	sub    %rax,%rdx
    6318:	48 29 c1             	sub    %rax,%rcx
    631b:	49 89 d1             	mov    %rdx,%r9
    631e:	48 89 c2             	mov    %rax,%rdx
    6321:	48 c1 ea 05          	shr    $0x5,%rdx
    6325:	4c 31 ca             	xor    %r9,%rdx
    6328:	48 29 d1             	sub    %rdx,%rcx
    632b:	48 29 d0             	sub    %rdx,%rax
    632e:	49 89 c9             	mov    %rcx,%r9
    6331:	48 89 d1             	mov    %rdx,%rcx
    6334:	48 c1 e9 23          	shr    $0x23,%rcx
    6338:	4c 31 c9             	xor    %r9,%rcx
    633b:	48 29 c8             	sub    %rcx,%rax
    633e:	49 89 c1             	mov    %rax,%r9
    6341:	48 89 c8             	mov    %rcx,%rax
    6344:	48 c1 e0 31          	shl    $0x31,%rax
    6348:	48 29 ca             	sub    %rcx,%rdx
    634b:	49 83 e8 03          	sub    $0x3,%r8
    634f:	48 83 c7 18          	add    $0x18,%rdi
    6353:	4c 31 c8             	xor    %r9,%rax
    6356:	48 29 c2             	sub    %rax,%rdx
    6359:	48 29 c1             	sub    %rax,%rcx
    635c:	49 89 d1             	mov    %rdx,%r9
    635f:	48 89 c2             	mov    %rax,%rdx
    6362:	48 c1 ea 0b          	shr    $0xb,%rdx
    6366:	4c 31 ca             	xor    %r9,%rdx
    6369:	48 29 d1             	sub    %rdx,%rcx
    636c:	48 29 d0             	sub    %rdx,%rax
    636f:	49 89 c9             	mov    %rcx,%r9
    6372:	48 89 d1             	mov    %rdx,%rcx
    6375:	48 c1 e9 0c          	shr    $0xc,%rcx
    6379:	4c 31 c9             	xor    %r9,%rcx
    637c:	48 29 c8             	sub    %rcx,%rax
    637f:	48 29 ca             	sub    %rcx,%rdx
    6382:	49 89 c1             	mov    %rax,%r9
    6385:	48 89 c8             	mov    %rcx,%rax
    6388:	48 c1 e0 12          	shl    $0x12,%rax
    638c:	4c 31 c8             	xor    %r9,%rax
    638f:	48 29 c2             	sub    %rax,%rdx
    6392:	49 89 d1             	mov    %rdx,%r9
    6395:	48 89 c2             	mov    %rax,%rdx
    6398:	48 c1 ea 16          	shr    $0x16,%rdx
    639c:	4c 31 ca             	xor    %r9,%rdx
    639f:	49 83 f8 02          	cmp    $0x2,%r8
    63a3:	0f 87 07 ff ff ff    	ja     62b0 <o_hash64+0xb0>
    63a9:	48 8d 14 f2          	lea    (%rdx,%rsi,8),%rdx
    63ad:	49 83 f8 01          	cmp    $0x1,%r8
    63b1:	0f 84 c5 00 00 00    	je     647c <o_hash64+0x27c>
    63b7:	49 83 f8 02          	cmp    $0x2,%r8
    63bb:	0f 84 b7 00 00 00    	je     6478 <o_hash64+0x278>
    63c1:	48 29 d1             	sub    %rdx,%rcx
    63c4:	48 89 d6             	mov    %rdx,%rsi
    63c7:	48 29 c1             	sub    %rax,%rcx
    63ca:	48 c1 ee 2b          	shr    $0x2b,%rsi
    63ce:	48 29 d0             	sub    %rdx,%rax
    63d1:	48 31 ce             	xor    %rcx,%rsi
    63d4:	48 89 f1             	mov    %rsi,%rcx
    63d7:	48 29 f0             	sub    %rsi,%rax
    63da:	48 29 f2             	sub    %rsi,%rdx
    63dd:	48 c1 e1 09          	shl    $0x9,%rcx
    63e1:	48 31 c1             	xor    %rax,%rcx
    63e4:	48 89 d0             	mov    %rdx,%rax
    63e7:	48 89 ca             	mov    %rcx,%rdx
    63ea:	48 29 c8             	sub    %rcx,%rax
    63ed:	48 29 ce             	sub    %rcx,%rsi
    63f0:	48 c1 ea 08          	shr    $0x8,%rdx
    63f4:	48 31 c2             	xor    %rax,%rdx
    63f7:	48 89 d0             	mov    %rdx,%rax
    63fa:	48 29 d6             	sub    %rdx,%rsi
    63fd:	48 29 d1             	sub    %rdx,%rcx
    6400:	48 c1 e8 26          	shr    $0x26,%rax
    6404:	48 31 f0             	xor    %rsi,%rax
    6407:	48 89 ce             	mov    %rcx,%rsi
    640a:	48 89 c1             	mov    %rax,%rcx
    640d:	48 29 c6             	sub    %rax,%rsi
    6410:	48 29 c2             	sub    %rax,%rdx
    6413:	48 c1 e1 17          	shl    $0x17,%rcx
    6417:	48 31 f1             	xor    %rsi,%rcx
    641a:	48 89 d6             	mov    %rdx,%rsi
    641d:	48 89 ca             	mov    %rcx,%rdx
    6420:	48 29 ce             	sub    %rcx,%rsi
    6423:	48 29 c8             	sub    %rcx,%rax
    6426:	48 c1 ea 05          	shr    $0x5,%rdx
    642a:	48 31 f2             	xor    %rsi,%rdx
    642d:	48 29 d0             	sub    %rdx,%rax
    6430:	48 29 d1             	sub    %rdx,%rcx
    6433:	48 89 c6             	mov    %rax,%rsi
    6436:	48 89 d0             	mov    %rdx,%rax
    6439:	48 c1 e8 23          	shr    $0x23,%rax
    643d:	48 31 f0             	xor    %rsi,%rax
    6440:	48 89 c6             	mov    %rax,%rsi
    6443:	48 29 c1             	sub    %rax,%rcx
    6446:	48 c1 e6 31          	shl    $0x31,%rsi
    644a:	48 31 ce             	xor    %rcx,%rsi
    644d:	48 29 c2             	sub    %rax,%rdx
    6450:	48 89 f1             	mov    %rsi,%rcx
    6453:	48 29 f2             	sub    %rsi,%rdx
    6456:	48 29 f0             	sub    %rsi,%rax
    6459:	48 c1 e9 0b          	shr    $0xb,%rcx
    645d:	48 31 ca             	xor    %rcx,%rdx
    6460:	48 29 d0             	sub    %rdx,%rax
    6463:	48 c1 ea 0c          	shr    $0xc,%rdx
    6467:	48 31 c2             	xor    %rax,%rdx
    646a:	48 89 15 0f 3d 01 00 	mov    %rdx,0x13d0f(%rip)        # 1a180 <K1>
    6471:	c3                   	ret    
    6472:	66 0f 1f 44 00 00    	nopw   0x0(%rax,%rax,1)
    6478:	48 03 47 08          	add    0x8(%rdi),%rax
    647c:	48 03 0f             	add    (%rdi),%rcx
    647f:	e9 3d ff ff ff       	jmp    63c1 <o_hash64+0x1c1>
    6484:	48 89 d0             	mov    %rdx,%rax
    6487:	e9 e4 fd ff ff       	jmp    6270 <o_hash64+0x70>
    648c:	48 89 d0             	mov    %rdx,%rax
    648f:	e9 ea fd ff ff       	jmp    627e <o_hash64+0x7e>
    6494:	66 66 2e 0f 1f 84 00 	data16 cs nopw 0x0(%rax,%rax,1)
    649b:	00 00 00 00 
    649f:	90                   	nop

00000000000064a0 <srinc_set>:
    64a0:	f3 0f 1e fa          	endbr64 
    64a4:	b8 01 00 00 00       	mov    $0x1,%eax
    64a9:	83 ff 02             	cmp    $0x2,%edi
    64ac:	7e 72                	jle    6520 <srinc_set+0x80>
    64ae:	b8 02 00 00 00       	mov    $0x2,%eax
    64b3:	81 ff f6 01 00 00    	cmp    $0x1f6,%edi
    64b9:	7e 65                	jle    6520 <srinc_set+0x80>
    64bb:	b8 03 00 00 00       	mov    $0x3,%eax
    64c0:	81 ff ea 03 00 00    	cmp    $0x3ea,%edi
    64c6:	7e 58                	jle    6520 <srinc_set+0x80>
    64c8:	b8 04 00 00 00       	mov    $0x4,%eax
    64cd:	81 ff de 05 00 00    	cmp    $0x5de,%edi
    64d3:	7e 4b                	jle    6520 <srinc_set+0x80>
    64d5:	b8 05 00 00 00       	mov    $0x5,%eax
    64da:	81 ff d2 07 00 00    	cmp    $0x7d2,%edi
    64e0:	7e 3e                	jle    6520 <srinc_set+0x80>
    64e2:	81 ff c4 09 00 00    	cmp    $0x9c4,%edi
    64e8:	74 46                	je     6530 <srinc_set+0x90>
    64ea:	81 ff b8 0b 00 00    	cmp    $0xbb8,%edi
    64f0:	74 36                	je     6528 <srinc_set+0x88>
    64f2:	b8 09 00 00 00       	mov    $0x9,%eax
    64f7:	81 ff ac 0d 00 00    	cmp    $0xdac,%edi
    64fd:	74 21                	je     6520 <srinc_set+0x80>
    64ff:	48 83 ec 08          	sub    $0x8,%rsp
    6503:	48 8d 3d ac a1 00 00 	lea    0xa1ac(%rip),%rdi        # 106b6 <CSWTCH.1491+0x35e>
    650a:	ff 15 48 3c 01 00    	call   *0x13c48(%rip)        # 1a158 <Uerror>
    6510:	b8 08 00 00 00       	mov    $0x8,%eax
    6515:	48 83 c4 08          	add    $0x8,%rsp
    6519:	c3                   	ret    
    651a:	66 0f 1f 44 00 00    	nopw   0x0(%rax,%rax,1)
    6520:	c3                   	ret    
    6521:	0f 1f 80 00 00 00 00 	nopl   0x0(%rax)
    6528:	b8 06 00 00 00       	mov    $0x6,%eax
    652d:	c3                   	ret    
    652e:	66 90                	xchg   %ax,%ax
    6530:	b8 07 00 00 00       	mov    $0x7,%eax
    6535:	c3                   	ret    
    6536:	66 2e 0f 1f 84 00 00 	cs nopw 0x0(%rax,%rax,1)
    653d:	00 00 00 

0000000000006540 <srunc>:
    6540:	f3 0f 1e fa          	endbr64 
    6544:	83 fe 09             	cmp    $0x9,%esi
    6547:	77 37                	ja     6580 <srunc+0x40>
    6549:	48 8d 15 50 9b 00 00 	lea    0x9b50(%rip),%rdx        # 100a0 <_IO_stdin_used+0xa0>
    6550:	89 f6                	mov    %esi,%esi
    6552:	48 63 04 b2          	movslq (%rdx,%rsi,4),%rax
    6556:	48 01 d0             	add    %rdx,%rax
    6559:	3e ff e0             	notrack jmp *%rax
    655c:	0f 1f 40 00          	nopl   0x0(%rax)
    6560:	b8 01 01 00 00       	mov    $0x101,%eax
    6565:	c3                   	ret    
    6566:	66 2e 0f 1f 84 00 00 	cs nopw 0x0(%rax,%rax,1)
    656d:	00 00 00 
    6570:	8d 87 22 fa ff ff    	lea    -0x5de(%rdi),%eax
    6576:	c3                   	ret    
    6577:	66 0f 1f 84 00 00 00 	nopw   0x0(%rax,%rax,1)
    657e:	00 00 
    6580:	48 83 ec 08          	sub    $0x8,%rsp
    6584:	48 8d 3d 45 a1 00 00 	lea    0xa145(%rip),%rdi        # 106d0 <CSWTCH.1491+0x378>
    658b:	ff 15 c7 3b 01 00    	call   *0x13bc7(%rip)        # 1a158 <Uerror>
    6591:	31 c0                	xor    %eax,%eax
    6593:	48 83 c4 08          	add    $0x8,%rsp
    6597:	c3                   	ret    
    6598:	0f 1f 84 00 00 00 00 	nopl   0x0(%rax,%rax,1)
    659f:	00 
    65a0:	8d 47 fe             	lea    -0x2(%rdi),%eax
    65a3:	c3                   	ret    
    65a4:	0f 1f 40 00          	nopl   0x0(%rax)
    65a8:	8d 87 0a fe ff ff    	lea    -0x1f6(%rdi),%eax
    65ae:	c3                   	ret    
    65af:	90                   	nop
    65b0:	8d 87 16 fc ff ff    	lea    -0x3ea(%rdi),%eax
    65b6:	c3                   	ret    
    65b7:	66 0f 1f 84 00 00 00 	nopw   0x0(%rax,%rax,1)
    65be:	00 00 

00000000000065c0 <mark_safety>:
    65c0:	f3 0f 1e fa          	endbr64 
    65c4:	41 56                	push   %r14
    65c6:	41 55                	push   %r13
    65c8:	41 54                	push   %r12
    65ca:	55                   	push   %rbp
    65cb:	53                   	push   %rbx
    65cc:	48 85 ff             	test   %rdi,%rdi
    65cf:	0f 84 bb 00 00 00    	je     6690 <mark_safety+0xd0>
    65d5:	66 83 7f 06 00       	cmpw   $0x0,0x6(%rdi)
    65da:	48 89 fb             	mov    %rdi,%rbx
    65dd:	75 79                	jne    6658 <mark_safety+0x98>
    65df:	4c 8d 6f 02          	lea    0x2(%rdi),%r13
    65e3:	4c 8d 77 06          	lea    0x6(%rdi),%r14
    65e7:	45 31 e4             	xor    %r12d,%r12d
    65ea:	41 0f bf 7d 00       	movswl 0x0(%r13),%edi
    65ef:	e8 ac fe ff ff       	call   64a0 <srinc_set>
    65f4:	89 c5                	mov    %eax,%ebp
    65f6:	83 f8 06             	cmp    $0x6,%eax
    65f9:	7e 09                	jle    6604 <mark_safety+0x44>
    65fb:	83 f8 09             	cmp    $0x9,%eax
    65fe:	0f 85 7c 00 00 00    	jne    6680 <mark_safety+0xc0>
    6604:	83 fd 01             	cmp    $0x1,%ebp
    6607:	75 17                	jne    6620 <mark_safety+0x60>
    6609:	49 83 c5 02          	add    $0x2,%r13
    660d:	4d 39 f5             	cmp    %r14,%r13
    6610:	75 d8                	jne    65ea <mark_safety+0x2a>
    6612:	5b                   	pop    %rbx
    6613:	44 89 e0             	mov    %r12d,%eax
    6616:	5d                   	pop    %rbp
    6617:	41 5c                	pop    %r12
    6619:	41 5d                	pop    %r13
    661b:	41 5e                	pop    %r14
    661d:	c3                   	ret    
    661e:	66 90                	xchg   %ax,%ax
    6620:	41 0f bf 7d 00       	movswl 0x0(%r13),%edi
    6625:	89 ee                	mov    %ebp,%esi
    6627:	e8 14 ff ff ff       	call   6540 <srunc>
    662c:	45 85 e4             	test   %r12d,%r12d
    662f:	74 08                	je     6639 <mark_safety+0x79>
    6631:	0f bf 53 06          	movswl 0x6(%rbx),%edx
    6635:	39 d0                	cmp    %edx,%eax
    6637:	74 37                	je     6670 <mark_safety+0xb0>
    6639:	49 63 d4             	movslq %r12d,%rdx
    663c:	49 83 c5 02          	add    $0x2,%r13
    6640:	41 83 c4 01          	add    $0x1,%r12d
    6644:	66 89 44 53 06       	mov    %ax,0x6(%rbx,%rdx,2)
    6649:	40 88 6c 13 12       	mov    %bpl,0x12(%rbx,%rdx,1)
    664e:	4d 39 f5             	cmp    %r14,%r13
    6651:	75 97                	jne    65ea <mark_safety+0x2a>
    6653:	eb bd                	jmp    6612 <mark_safety+0x52>
    6655:	0f 1f 00             	nopl   (%rax)
    6658:	66 83 7f 08 01       	cmpw   $0x1,0x8(%rdi)
    665d:	5b                   	pop    %rbx
    665e:	45 19 e4             	sbb    %r12d,%r12d
    6661:	5d                   	pop    %rbp
    6662:	41 83 c4 02          	add    $0x2,%r12d
    6666:	44 89 e0             	mov    %r12d,%eax
    6669:	41 5c                	pop    %r12
    666b:	41 5d                	pop    %r13
    666d:	41 5e                	pop    %r14
    666f:	c3                   	ret    
    6670:	0f b6 53 12          	movzbl 0x12(%rbx),%edx
    6674:	39 d5                	cmp    %edx,%ebp
    6676:	75 c1                	jne    6639 <mark_safety+0x79>
    6678:	eb 8f                	jmp    6609 <mark_safety+0x49>
    667a:	66 0f 1f 44 00 00    	nopw   0x0(%rax,%rax,1)
    6680:	41 bc ff ff ff ff    	mov    $0xffffffff,%r12d
    6686:	eb 8a                	jmp    6612 <mark_safety+0x52>
    6688:	0f 1f 84 00 00 00 00 	nopl   0x0(%rax,%rax,1)
    668f:	00 
    6690:	45 31 e4             	xor    %r12d,%r12d
    6693:	5b                   	pop    %rbx
    6694:	5d                   	pop    %rbp
    6695:	44 89 e0             	mov    %r12d,%eax
    6698:	41 5c                	pop    %r12
    669a:	41 5d                	pop    %r13
    669c:	41 5e                	pop    %r14
    669e:	c3                   	ret    
    669f:	90                   	nop

00000000000066a0 <imed>:
    66a0:	f3 0f 1e fa          	endbr64 
    66a4:	48 89 f8             	mov    %rdi,%rax
    66a7:	48 63 d2             	movslq %edx,%rdx
    66aa:	48 8d 3d 1f 2e 01 00 	lea    0x12e1f(%rip),%rdi        # 194d0 <progstate>
    66b1:	48 63 f6             	movslq %esi,%rsi
    66b4:	48 8b 3c d7          	mov    (%rdi,%rdx,8),%rdi
    66b8:	4c 63 40 20          	movslq 0x20(%rax),%r8
    66bc:	48 63 c9             	movslq %ecx,%rcx
    66bf:	44 0f b6 0c 37       	movzbl (%rdi,%rsi,1),%r9d
    66c4:	46 08 0c 07          	or     %r9b,(%rdi,%r8,1)
    66c8:	48 8d 3d 21 2e 01 00 	lea    0x12e21(%rip),%rdi        # 194f0 <accpstate>
    66cf:	48 8b 3c d7          	mov    (%rdi,%rdx,8),%rdi
    66d3:	4c 63 40 20          	movslq 0x20(%rax),%r8
    66d7:	44 0f b6 0c 37       	movzbl (%rdi,%rsi,1),%r9d
    66dc:	46 08 0c 07          	or     %r9b,(%rdi,%r8,1)
    66e0:	48 8d 3d 89 2d 01 00 	lea    0x12d89(%rip),%rdi        # 19470 <stopstate>
    66e7:	48 8b 3c d7          	mov    (%rdi,%rdx,8),%rdi
    66eb:	4c 63 40 20          	movslq 0x20(%rax),%r8
    66ef:	0f b6 34 37          	movzbl (%rdi,%rsi,1),%esi
    66f3:	42 08 34 07          	or     %sil,(%rdi,%r8,1)
    66f7:	48 8d 35 32 2d 01 00 	lea    0x12d32(%rip),%rsi        # 19430 <mapstate>
    66fe:	48 8b 14 d6          	mov    (%rsi,%rdx,8),%rdx
    6702:	8b 40 20             	mov    0x20(%rax),%eax
    6705:	66 89 04 4a          	mov    %ax,(%rdx,%rcx,2)
    6709:	c3                   	ret    
    670a:	66 0f 1f 44 00 00    	nopw   0x0(%rax,%rax,1)

0000000000006710 <tagtable>:
    6710:	f3 0f 1e fa          	endbr64 
    6714:	41 57                	push   %r15
