
global_nondet:     file format elf64-x86-64


Disassembly of section .init:

0000000000001000 <_init>:
    1000:	f3 0f 1e fa          	endbr64 
    1004:	48 83 ec 08          	sub    $0x8,%rsp
    1008:	48 8b 05 d9 2f 00 00 	mov    0x2fd9(%rip),%rax        # 3fe8 <__gmon_start__@Base>
    100f:	48 85 c0             	test   %rax,%rax
    1012:	74 02                	je     1016 <_init+0x16>
    1014:	ff d0                	call   *%rax
    1016:	48 83 c4 08          	add    $0x8,%rsp
    101a:	c3                   	ret    

Disassembly of section .plt:

0000000000001020 <.plt>:
    1020:	ff 35 92 2f 00 00    	push   0x2f92(%rip)        # 3fb8 <_GLOBAL_OFFSET_TABLE_+0x8>
    1026:	f2 ff 25 93 2f 00 00 	bnd jmp *0x2f93(%rip)        # 3fc0 <_GLOBAL_OFFSET_TABLE_+0x10>
    102d:	0f 1f 00             	nopl   (%rax)
    1030:	f3 0f 1e fa          	endbr64 
    1034:	68 00 00 00 00       	push   $0x0
    1039:	f2 e9 e1 ff ff ff    	bnd jmp 1020 <_init+0x20>
    103f:	90                   	nop
    1040:	f3 0f 1e fa          	endbr64 
    1044:	68 01 00 00 00       	push   $0x1
    1049:	f2 e9 d1 ff ff ff    	bnd jmp 1020 <_init+0x20>
    104f:	90                   	nop

Disassembly of section .plt.got:

0000000000001050 <__cxa_finalize@plt>:
    1050:	f3 0f 1e fa          	endbr64 
    1054:	f2 ff 25 9d 2f 00 00 	bnd jmp *0x2f9d(%rip)        # 3ff8 <__cxa_finalize@GLIBC_2.2.5>
    105b:	0f 1f 44 00 00       	nopl   0x0(%rax,%rax,1)

Disassembly of section .plt.sec:

0000000000001060 <printf@plt>:
    1060:	f3 0f 1e fa          	endbr64 
    1064:	f2 ff 25 5d 2f 00 00 	bnd jmp *0x2f5d(%rip)        # 3fc8 <printf@GLIBC_2.2.5>
    106b:	0f 1f 44 00 00       	nopl   0x0(%rax,%rax,1)

0000000000001070 <exit@plt>:
    1070:	f3 0f 1e fa          	endbr64 
    1074:	f2 ff 25 55 2f 00 00 	bnd jmp *0x2f55(%rip)        # 3fd0 <exit@GLIBC_2.2.5>
    107b:	0f 1f 44 00 00       	nopl   0x0(%rax,%rax,1)

Disassembly of section .text:

0000000000001080 <_start>:
    1080:	f3 0f 1e fa          	endbr64 
    1084:	31 ed                	xor    %ebp,%ebp
    1086:	49 89 d1             	mov    %rdx,%r9
    1089:	5e                   	pop    %rsi
    108a:	48 89 e2             	mov    %rsp,%rdx
    108d:	48 83 e4 f0          	and    $0xfffffffffffffff0,%rsp
    1091:	50                   	push   %rax
    1092:	54                   	push   %rsp
    1093:	45 31 c0             	xor    %r8d,%r8d
    1096:	31 c9                	xor    %ecx,%ecx
    1098:	48 8d 3d 06 01 00 00 	lea    0x106(%rip),%rdi        # 11a5 <main>
    109f:	ff 15 33 2f 00 00    	call   *0x2f33(%rip)        # 3fd8 <__libc_start_main@GLIBC_2.34>
    10a5:	f4                   	hlt    
    10a6:	66 2e 0f 1f 84 00 00 	cs nopw 0x0(%rax,%rax,1)
    10ad:	00 00 00 

00000000000010b0 <deregister_tm_clones>:
    10b0:	48 8d 3d 59 2f 00 00 	lea    0x2f59(%rip),%rdi        # 4010 <__TMC_END__>
    10b7:	48 8d 05 52 2f 00 00 	lea    0x2f52(%rip),%rax        # 4010 <__TMC_END__>
    10be:	48 39 f8             	cmp    %rdi,%rax
    10c1:	74 15                	je     10d8 <deregister_tm_clones+0x28>
    10c3:	48 8b 05 16 2f 00 00 	mov    0x2f16(%rip),%rax        # 3fe0 <_ITM_deregisterTMCloneTable@Base>
    10ca:	48 85 c0             	test   %rax,%rax
    10cd:	74 09                	je     10d8 <deregister_tm_clones+0x28>
    10cf:	ff e0                	jmp    *%rax
    10d1:	0f 1f 80 00 00 00 00 	nopl   0x0(%rax)
    10d8:	c3                   	ret    
    10d9:	0f 1f 80 00 00 00 00 	nopl   0x0(%rax)

00000000000010e0 <register_tm_clones>:
    10e0:	48 8d 3d 29 2f 00 00 	lea    0x2f29(%rip),%rdi        # 4010 <__TMC_END__>
    10e7:	48 8d 35 22 2f 00 00 	lea    0x2f22(%rip),%rsi        # 4010 <__TMC_END__>
    10ee:	48 29 fe             	sub    %rdi,%rsi
    10f1:	48 89 f0             	mov    %rsi,%rax
    10f4:	48 c1 ee 3f          	shr    $0x3f,%rsi
    10f8:	48 c1 f8 03          	sar    $0x3,%rax
    10fc:	48 01 c6             	add    %rax,%rsi
    10ff:	48 d1 fe             	sar    %rsi
    1102:	74 14                	je     1118 <register_tm_clones+0x38>
    1104:	48 8b 05 e5 2e 00 00 	mov    0x2ee5(%rip),%rax        # 3ff0 <_ITM_registerTMCloneTable@Base>
    110b:	48 85 c0             	test   %rax,%rax
    110e:	74 08                	je     1118 <register_tm_clones+0x38>
    1110:	ff e0                	jmp    *%rax
    1112:	66 0f 1f 44 00 00    	nopw   0x0(%rax,%rax,1)
    1118:	c3                   	ret    
    1119:	0f 1f 80 00 00 00 00 	nopl   0x0(%rax)

0000000000001120 <__do_global_dtors_aux>:
    1120:	f3 0f 1e fa          	endbr64 
    1124:	80 3d e5 2e 00 00 00 	cmpb   $0x0,0x2ee5(%rip)        # 4010 <__TMC_END__>
    112b:	75 2b                	jne    1158 <__do_global_dtors_aux+0x38>
    112d:	55                   	push   %rbp
    112e:	48 83 3d c2 2e 00 00 	cmpq   $0x0,0x2ec2(%rip)        # 3ff8 <__cxa_finalize@GLIBC_2.2.5>
    1135:	00 
    1136:	48 89 e5             	mov    %rsp,%rbp
    1139:	74 0c                	je     1147 <__do_global_dtors_aux+0x27>
    113b:	48 8b 3d c6 2e 00 00 	mov    0x2ec6(%rip),%rdi        # 4008 <__dso_handle>
    1142:	e8 09 ff ff ff       	call   1050 <__cxa_finalize@plt>
    1147:	e8 64 ff ff ff       	call   10b0 <deregister_tm_clones>
    114c:	c6 05 bd 2e 00 00 01 	movb   $0x1,0x2ebd(%rip)        # 4010 <__TMC_END__>
    1153:	5d                   	pop    %rbp
    1154:	c3                   	ret    
    1155:	0f 1f 00             	nopl   (%rax)
    1158:	c3                   	ret    
    1159:	0f 1f 80 00 00 00 00 	nopl   0x0(%rax)

0000000000001160 <frame_dummy>:
    1160:	f3 0f 1e fa          	endbr64 
    1164:	e9 77 ff ff ff       	jmp    10e0 <register_tm_clones>

0000000000001169 <f1>:
    1169:	f3 0f 1e fa          	endbr64 
    116d:	55                   	push   %rbp
    116e:	48 89 e5             	mov    %rsp,%rbp
    1171:	b8 01 00 00 00       	mov    $0x1,%eax
    1176:	5d                   	pop    %rbp
    1177:	c3                   	ret    

0000000000001178 <f2>:
    1178:	f3 0f 1e fa          	endbr64 
    117c:	55                   	push   %rbp
    117d:	48 89 e5             	mov    %rsp,%rbp
    1180:	b8 02 00 00 00       	mov    $0x2,%eax
    1185:	5d                   	pop    %rbp
    1186:	c3                   	ret    

0000000000001187 <f3>:
    1187:	f3 0f 1e fa          	endbr64 
    118b:	55                   	push   %rbp
    118c:	48 89 e5             	mov    %rsp,%rbp
    118f:	b8 03 00 00 00       	mov    $0x3,%eax
    1194:	5d                   	pop    %rbp
    1195:	c3                   	ret    

0000000000001196 <f4>:
    1196:	f3 0f 1e fa          	endbr64 
    119a:	55                   	push   %rbp
    119b:	48 89 e5             	mov    %rsp,%rbp
    119e:	b8 04 00 00 00       	mov    $0x4,%eax
    11a3:	5d                   	pop    %rbp
    11a4:	c3                   	ret    

00000000000011a5 <main>:
    11a5:	f3 0f 1e fa          	endbr64 
    11a9:	55                   	push   %rbp
    11aa:	48 89 e5             	mov    %rsp,%rbp
    11ad:	53                   	push   %rbx
    11ae:	48 83 ec 18          	sub    $0x18,%rsp
    11b2:	89 7d ec             	mov    %edi,-0x14(%rbp)
    11b5:	48 89 75 e0          	mov    %rsi,-0x20(%rbp)
    11b9:	83 7d ec 00          	cmpl   $0x0,-0x14(%rbp)
    11bd:	7f 0a                	jg     11c9 <main+0x24>
    11bf:	bf 01 00 00 00       	mov    $0x1,%edi
    11c4:	e8 a7 fe ff ff       	call   1070 <exit@plt>
    11c9:	8b 45 ec             	mov    -0x14(%rbp),%eax
    11cc:	83 e0 01             	and    $0x1,%eax
    11cf:	85 c0                	test   %eax,%eax
    11d1:	75 10                	jne    11e3 <main+0x3e>
    11d3:	48 8d 05 8f ff ff ff 	lea    -0x71(%rip),%rax        # 1169 <f1>
    11da:	48 89 05 3f 2e 00 00 	mov    %rax,0x2e3f(%rip)        # 4020 <fp>
    11e1:	eb 0e                	jmp    11f1 <main+0x4c>
    11e3:	48 8d 05 8e ff ff ff 	lea    -0x72(%rip),%rax        # 1178 <f2>
    11ea:	48 89 05 2f 2e 00 00 	mov    %rax,0x2e2f(%rip)        # 4020 <fp>
    11f1:	b8 00 00 00 00       	mov    $0x0,%eax
    11f6:	e8 6e ff ff ff       	call   1169 <f1>
    11fb:	8b 15 17 2e 00 00    	mov    0x2e17(%rip),%edx        # 4018 <x>
    1201:	01 d0                	add    %edx,%eax
    1203:	89 05 0f 2e 00 00    	mov    %eax,0x2e0f(%rip)        # 4018 <x>
    1209:	48 8b 15 10 2e 00 00 	mov    0x2e10(%rip),%rdx        # 4020 <fp>
    1210:	b8 00 00 00 00       	mov    $0x0,%eax
    1215:	ff d2                	call   *%rdx
    1217:	8b 15 fb 2d 00 00    	mov    0x2dfb(%rip),%edx        # 4018 <x>
    121d:	01 d0                	add    %edx,%eax
    121f:	89 05 f3 2d 00 00    	mov    %eax,0x2df3(%rip)        # 4018 <x>
    1225:	b8 00 00 00 00       	mov    $0x0,%eax
    122a:	e8 3a ff ff ff       	call   1169 <f1>
    122f:	8b 15 e3 2d 00 00    	mov    0x2de3(%rip),%edx        # 4018 <x>
    1235:	8d 1c 10             	lea    (%rax,%rdx,1),%ebx
    1238:	b8 00 00 00 00       	mov    $0x0,%eax
    123d:	e8 36 ff ff ff       	call   1178 <f2>
    1242:	01 c3                	add    %eax,%ebx
    1244:	b8 00 00 00 00       	mov    $0x0,%eax
    1249:	e8 39 ff ff ff       	call   1187 <f3>
    124e:	01 c3                	add    %eax,%ebx
    1250:	b8 00 00 00 00       	mov    $0x0,%eax
    1255:	e8 3c ff ff ff       	call   1196 <f4>
    125a:	01 d8                	add    %ebx,%eax
    125c:	89 05 b6 2d 00 00    	mov    %eax,0x2db6(%rip)        # 4018 <x>
    1262:	8b 05 b0 2d 00 00    	mov    0x2db0(%rip),%eax        # 4018 <x>
    1268:	89 c6                	mov    %eax,%esi
    126a:	48 8d 05 93 0d 00 00 	lea    0xd93(%rip),%rax        # 2004 <_IO_stdin_used+0x4>
    1271:	48 89 c7             	mov    %rax,%rdi
    1274:	b8 00 00 00 00       	mov    $0x0,%eax
    1279:	e8 e2 fd ff ff       	call   1060 <printf@plt>
    127e:	b8 00 00 00 00       	mov    $0x0,%eax
    1283:	48 8b 5d f8          	mov    -0x8(%rbp),%rbx
    1287:	c9                   	leave  
    1288:	c3                   	ret    

Disassembly of section .fini:

000000000000128c <_fini>:
    128c:	f3 0f 1e fa          	endbr64 
    1290:	48 83 ec 08          	sub    $0x8,%rsp
    1294:	48 83 c4 08          	add    $0x8,%rsp
    1298:	c3                   	ret    
